ARM GAS  C:\Users\ELIOOV~1\AppData\Local\Temp\cc7MvtNq.s 			page 1


   1              		.cpu cortex-m4
   2              		.eabi_attribute 27, 1
   3              		.eabi_attribute 28, 1
   4              		.eabi_attribute 20, 1
   5              		.eabi_attribute 21, 1
   6              		.eabi_attribute 23, 3
   7              		.eabi_attribute 24, 1
   8              		.eabi_attribute 25, 1
   9              		.eabi_attribute 26, 1
  10              		.eabi_attribute 30, 2
  11              		.eabi_attribute 34, 1
  12              		.eabi_attribute 18, 4
  13              		.file	"main.c"
  14              		.text
  15              	.Ltext0:
  16              		.cfi_sections	.debug_frame
  17              		.section	.text.SendUint8ToComputer,"ax",%progbits
  18              		.align	1
  19              		.p2align 4,,15
  20              		.global	SendUint8ToComputer
  21              		.syntax unified
  22              		.thumb
  23              		.thumb_func
  24              		.fpu fpv4-sp-d16
  25              		.type	SendUint8ToComputer, %function
  26              	SendUint8ToComputer:
  27              	.LFB260:
  28              		.file 1 "main.c"
  29              		.loc 1 24 0
  30              		.cfi_startproc
  31              		@ args = 0, pretend = 0, frame = 16
  32              		@ frame_needed = 0, uses_anonymous_args = 0
  33              	.LVL0:
  34 0000 70B5     		push	{r4, r5, r6, lr}
  35              		.cfi_def_cfa_offset 16
  36              		.cfi_offset 4, -16
  37              		.cfi_offset 5, -12
  38              		.cfi_offset 6, -8
  39              		.cfi_offset 14, -4
  40              		.loc 1 25 0
  41 0002 124C     		ldr	r4, .L6
  42              		.loc 1 24 0
  43 0004 124D     		ldr	r5, .L6+4
  44              		.loc 1 25 0
  45 0006 2368     		ldr	r3, [r4]
  46              		.loc 1 24 0
  47 0008 2A68     		ldr	r2, [r5]
  48 000a 84B0     		sub	sp, sp, #16
  49              		.cfi_def_cfa_offset 32
  50              		.loc 1 24 0
  51 000c 0646     		mov	r6, r0
  52 000e ADF80610 		strh	r1, [sp, #6]	@ movhi
  53              		.loc 1 25 0
  54 0012 1B68     		ldr	r3, [r3]
  55 0014 0F49     		ldr	r1, .L6+8
  56              	.LVL1:
  57              		.loc 1 24 0
ARM GAS  C:\Users\ELIOOV~1\AppData\Local\Temp\cc7MvtNq.s 			page 2


  58 0016 0392     		str	r2, [sp, #12]
  59              		.loc 1 25 0
  60 0018 2046     		mov	r0, r4
  61              	.LVL2:
  62 001a 0522     		movs	r2, #5
  63 001c 9847     		blx	r3
  64              	.LVL3:
  65              		.loc 1 26 0
  66 001e 2368     		ldr	r3, [r4]
  67 0020 0222     		movs	r2, #2
  68 0022 1B68     		ldr	r3, [r3]
  69 0024 0DF10601 		add	r1, sp, #6
  70 0028 2046     		mov	r0, r4
  71 002a 9847     		blx	r3
  72              	.LVL4:
  73              		.loc 1 27 0
  74 002c 2368     		ldr	r3, [r4]
  75 002e BDF80620 		ldrh	r2, [sp, #6]
  76 0032 1B68     		ldr	r3, [r3]
  77 0034 3146     		mov	r1, r6
  78 0036 2046     		mov	r0, r4
  79 0038 9847     		blx	r3
  80              	.LVL5:
  81              		.loc 1 28 0
  82 003a 039A     		ldr	r2, [sp, #12]
  83 003c 2B68     		ldr	r3, [r5]
  84 003e 9A42     		cmp	r2, r3
  85 0040 01D1     		bne	.L5
  86 0042 04B0     		add	sp, sp, #16
  87              		.cfi_remember_state
  88              		.cfi_def_cfa_offset 16
  89              		@ sp needed
  90 0044 70BD     		pop	{r4, r5, r6, pc}
  91              	.LVL6:
  92              	.L5:
  93              		.cfi_restore_state
  94 0046 FFF7FEFF 		bl	__stack_chk_fail
  95              	.LVL7:
  96              	.L7:
  97 004a 00BF     		.align	2
  98              	.L6:
  99 004c 00000000 		.word	SD3
 100 0050 00000000 		.word	__stack_chk_guard
 101 0054 00000000 		.word	.LC0
 102              		.cfi_endproc
 103              	.LFE260:
 104              		.size	SendUint8ToComputer, .-SendUint8ToComputer
 105              		.section	.text.SendUint16ToComputer,"ax",%progbits
 106              		.align	1
 107              		.p2align 4,,15
 108              		.global	SendUint16ToComputer
 109              		.syntax unified
 110              		.thumb
 111              		.thumb_func
 112              		.fpu fpv4-sp-d16
 113              		.type	SendUint16ToComputer, %function
 114              	SendUint16ToComputer:
ARM GAS  C:\Users\ELIOOV~1\AppData\Local\Temp\cc7MvtNq.s 			page 3


 115              	.LFB261:
 116              		.loc 1 31 0
 117              		.cfi_startproc
 118              		@ args = 0, pretend = 0, frame = 16
 119              		@ frame_needed = 0, uses_anonymous_args = 0
 120              	.LVL8:
 121 0000 70B5     		push	{r4, r5, r6, lr}
 122              		.cfi_def_cfa_offset 16
 123              		.cfi_offset 4, -16
 124              		.cfi_offset 5, -12
 125              		.cfi_offset 6, -8
 126              		.cfi_offset 14, -4
 127              		.loc 1 32 0
 128 0002 124C     		ldr	r4, .L12
 129              		.loc 1 31 0
 130 0004 124D     		ldr	r5, .L12+4
 131              		.loc 1 32 0
 132 0006 2368     		ldr	r3, [r4]
 133              		.loc 1 31 0
 134 0008 2A68     		ldr	r2, [r5]
 135 000a 84B0     		sub	sp, sp, #16
 136              		.cfi_def_cfa_offset 32
 137              		.loc 1 31 0
 138 000c 0646     		mov	r6, r0
 139 000e ADF80610 		strh	r1, [sp, #6]	@ movhi
 140              		.loc 1 32 0
 141 0012 1B68     		ldr	r3, [r3]
 142 0014 0F49     		ldr	r1, .L12+8
 143              	.LVL9:
 144              		.loc 1 31 0
 145 0016 0392     		str	r2, [sp, #12]
 146              		.loc 1 32 0
 147 0018 2046     		mov	r0, r4
 148              	.LVL10:
 149 001a 0522     		movs	r2, #5
 150 001c 9847     		blx	r3
 151              	.LVL11:
 152              		.loc 1 33 0
 153 001e 2368     		ldr	r3, [r4]
 154 0020 0222     		movs	r2, #2
 155 0022 1B68     		ldr	r3, [r3]
 156 0024 0DF10601 		add	r1, sp, #6
 157 0028 2046     		mov	r0, r4
 158 002a 9847     		blx	r3
 159              	.LVL12:
 160              		.loc 1 34 0
 161 002c 2368     		ldr	r3, [r4]
 162 002e BDF80620 		ldrh	r2, [sp, #6]
 163 0032 1B68     		ldr	r3, [r3]
 164 0034 5200     		lsls	r2, r2, #1
 165 0036 3146     		mov	r1, r6
 166 0038 2046     		mov	r0, r4
 167 003a 9847     		blx	r3
 168              	.LVL13:
 169              		.loc 1 35 0
 170 003c 039A     		ldr	r2, [sp, #12]
 171 003e 2B68     		ldr	r3, [r5]
ARM GAS  C:\Users\ELIOOV~1\AppData\Local\Temp\cc7MvtNq.s 			page 4


 172 0040 9A42     		cmp	r2, r3
 173 0042 01D1     		bne	.L11
 174 0044 04B0     		add	sp, sp, #16
 175              		.cfi_remember_state
 176              		.cfi_def_cfa_offset 16
 177              		@ sp needed
 178 0046 70BD     		pop	{r4, r5, r6, pc}
 179              	.LVL14:
 180              	.L11:
 181              		.cfi_restore_state
 182 0048 FFF7FEFF 		bl	__stack_chk_fail
 183              	.LVL15:
 184              	.L13:
 185              		.align	2
 186              	.L12:
 187 004c 00000000 		.word	SD3
 188 0050 00000000 		.word	__stack_chk_guard
 189 0054 00000000 		.word	.LC0
 190              		.cfi_endproc
 191              	.LFE261:
 192              		.size	SendUint16ToComputer, .-SendUint16ToComputer
 193              		.section	.text.startup.main,"ax",%progbits
 194              		.align	1
 195              		.p2align 4,,15
 196              		.global	main
 197              		.syntax unified
 198              		.thumb
 199              		.thumb_func
 200              		.fpu fpv4-sp-d16
 201              		.type	main, %function
 202              	main:
 203              	.LFB263:
 204              		.loc 1 51 0
 205              		.cfi_startproc
 206              		@ args = 0, pretend = 0, frame = 8
 207              		@ frame_needed = 0, uses_anonymous_args = 0
 208 0000 00B5     		push	{lr}
 209              		.cfi_def_cfa_offset 4
 210              		.cfi_offset 14, -4
 211 0002 114B     		ldr	r3, .L18
 212 0004 83B0     		sub	sp, sp, #12
 213              		.cfi_def_cfa_offset 16
 214              		.loc 1 51 0
 215 0006 1B68     		ldr	r3, [r3]
 216 0008 0193     		str	r3, [sp, #4]
 217              		.loc 1 55 0
 218 000a FFF7FEFF 		bl	halInit
 219              	.LVL16:
 220              		.loc 1 56 0
 221 000e FFF7FEFF 		bl	chSysInit
 222              	.LVL17:
 223              		.loc 1 57 0
 224 0012 FFF7FEFF 		bl	mpu_init
 225              	.LVL18:
 226              	.LBB5:
 227              	.LBB6:
 228              		.loc 1 47 0
ARM GAS  C:\Users\ELIOOV~1\AppData\Local\Temp\cc7MvtNq.s 			page 5


 229 0016 0D49     		ldr	r1, .L18+4
 230 0018 0D48     		ldr	r0, .L18+8
 231 001a FFF7FEFF 		bl	sdStart
 232              	.LVL19:
 233              	.LBE6:
 234              	.LBE5:
 235              		.loc 1 62 0
 236 001e FFF7FEFF 		bl	usb_start
 237              	.LVL20:
 238              		.loc 1 64 0
 239 0022 FFF7FEFF 		bl	dcmi_start
 240              	.LVL21:
 241              		.loc 1 65 0
 242 0026 FFF7FEFF 		bl	po8030_start
 243              	.LVL22:
 244              		.loc 1 67 0
 245 002a FFF7FEFF 		bl	motors_init
 246              	.LVL23:
 247              		.loc 1 68 0
 248 002e FFF7FEFF 		bl	VL53L0X_start
 249              	.LVL24:
 250              		.loc 1 70 0
 251 0032 FFF7FEFF 		bl	scaning
 252              	.LVL25:
 253              		.loc 1 73 0
 254 0036 4FF47A70 		mov	r0, #1000
 255 003a FFF7FEFF 		bl	chThdSleep
 256              	.LVL26:
 257              	.L15:
 258              		.loc 1 87 0 discriminator 1
 259 003e 6420     		movs	r0, #100
 260 0040 FFF7FEFF 		bl	chThdSleep
 261              	.LVL27:
 262 0044 FBE7     		b	.L15
 263              	.L19:
 264 0046 00BF     		.align	2
 265              	.L18:
 266 0048 00000000 		.word	__stack_chk_guard
 267 004c 00000000 		.word	.LANCHOR0
 268 0050 00000000 		.word	SD3
 269              		.cfi_endproc
 270              	.LFE263:
 271              		.size	main, .-main
 272              		.section	.text.__stack_chk_fail,"ax",%progbits
 273              		.align	1
 274              		.p2align 4,,15
 275              		.global	__stack_chk_fail
 276              		.syntax unified
 277              		.thumb
 278              		.thumb_func
 279              		.fpu fpv4-sp-d16
 280              		.type	__stack_chk_fail, %function
 281              	__stack_chk_fail:
 282              	.LFB264:
 283              		.loc 1 96 0
 284              		.cfi_startproc
 285              		@ args = 0, pretend = 0, frame = 8
ARM GAS  C:\Users\ELIOOV~1\AppData\Local\Temp\cc7MvtNq.s 			page 6


 286              		@ frame_needed = 0, uses_anonymous_args = 0
 287 0000 00B5     		push	{lr}
 288              		.cfi_def_cfa_offset 4
 289              		.cfi_offset 14, -4
 290 0002 084B     		ldr	r3, .L25
 291 0004 83B0     		sub	sp, sp, #12
 292              		.cfi_def_cfa_offset 16
 293              		.loc 1 96 0
 294 0006 1A68     		ldr	r2, [r3]
 295 0008 0192     		str	r2, [sp, #4]
 296              		.loc 1 97 0
 297 000a 019A     		ldr	r2, [sp, #4]
 298 000c 1B68     		ldr	r3, [r3]
 299 000e 9A42     		cmp	r2, r3
 300 0010 05D1     		bne	.L24
 301 0012 0548     		ldr	r0, .L25+4
 302              		.loc 1 98 0
 303 0014 03B0     		add	sp, sp, #12
 304              		.cfi_remember_state
 305              		.cfi_def_cfa_offset 4
 306              		@ sp needed
 307 0016 5DF804EB 		ldr	lr, [sp], #4
 308              		.cfi_restore 14
 309              		.cfi_def_cfa_offset 0
 310              		.loc 1 97 0
 311 001a FFF7FEBF 		b	chSysHalt
 312              	.LVL28:
 313              	.L24:
 314              		.cfi_restore_state
 315 001e FFF7FEFF 		bl	__stack_chk_fail
 316              	.LVL29:
 317              	.L26:
 318 0022 00BF     		.align	2
 319              	.L25:
 320 0024 00000000 		.word	__stack_chk_guard
 321 0028 00000000 		.word	.LC1
 322              		.cfi_endproc
 323              	.LFE264:
 324              		.size	__stack_chk_fail, .-__stack_chk_fail
 325              		.global	__stack_chk_guard
 326              		.section	.data.__stack_chk_guard,"aw",%progbits
 327              		.align	2
 328              		.type	__stack_chk_guard, %object
 329              		.size	__stack_chk_guard, 4
 330              	__stack_chk_guard:
 331 0000 96E3DEE2 		.word	-488709226
 332              		.section	.data.ser_cfg.13401,"aw",%progbits
 333              		.align	2
 334              		.set	.LANCHOR0,. + 0
 335              		.type	ser_cfg.13401, %object
 336              		.size	ser_cfg.13401, 12
 337              	ser_cfg.13401:
 338 0000 00C20100 		.word	115200
 339 0004 0000     		.short	0
 340 0006 0000     		.short	0
 341 0008 0000     		.short	0
 342 000a 0000     		.space	2
ARM GAS  C:\Users\ELIOOV~1\AppData\Local\Temp\cc7MvtNq.s 			page 7


 343              		.section	.rodata.SendUint8ToComputer.str1.4,"aMS",%progbits,1
 344              		.align	2
 345              	.LC0:
 346 0000 53544152 		.ascii	"START\000"
 346      5400
 347              		.section	.rodata.__stack_chk_fail.str1.4,"aMS",%progbits,1
 348              		.align	2
 349              	.LC1:
 350 0000 53746163 		.ascii	"Stack smashing detected\000"
 350      6B20736D 
 350      61736869 
 350      6E672064 
 350      65746563 
 351              		.text
 352              	.Letext0:
 353              		.file 2 "c:\\eclipse_e-puck2\\tools\\gcc-arm-none-eabi-7-2017-q4-major-win32\\arm-none-eabi\\inclu
 354              		.file 3 "c:\\eclipse_e-puck2\\tools\\gcc-arm-none-eabi-7-2017-q4-major-win32\\lib\\gcc\\arm-none-e
 355              		.file 4 "c:\\eclipse_e-puck2\\tools\\gcc-arm-none-eabi-7-2017-q4-major-win32\\arm-none-eabi\\inclu
 356              		.file 5 "c:\\eclipse_e-puck2\\tools\\gcc-arm-none-eabi-7-2017-q4-major-win32\\arm-none-eabi\\inclu
 357              		.file 6 "c:\\eclipse_e-puck2\\tools\\gcc-arm-none-eabi-7-2017-q4-major-win32\\arm-none-eabi\\inclu
 358              		.file 7 "c:\\eclipse_e-puck2\\tools\\gcc-arm-none-eabi-7-2017-q4-major-win32\\arm-none-eabi\\inclu
 359              		.file 8 "c:\\eclipse_e-puck2\\tools\\gcc-arm-none-eabi-7-2017-q4-major-win32\\arm-none-eabi\\inclu
 360              		.file 9 "c:\\eclipse_e-puck2\\tools\\gcc-arm-none-eabi-7-2017-q4-major-win32\\arm-none-eabi\\inclu
 361              		.file 10 "../../lib/e-puck2_main-processor/ChibiOS//os/rt/ports/ARMCMx/compilers/GCC/chtypes.h"
 362              		.file 11 "../../lib/e-puck2_main-processor/ChibiOS//os/rt/include/chsystypes.h"
 363              		.file 12 "../../lib/e-puck2_main-processor/ChibiOS//os/rt/include/chschd.h"
 364              		.file 13 "../../lib/e-puck2_main-processor/ChibiOS//os/ext/CMSIS/include/core_cm4.h"
 365              		.file 14 "../../lib/e-puck2_main-processor/ChibiOS//os/ext/CMSIS/ST/system_stm32f4xx.h"
 366              		.file 15 "../../lib/e-puck2_main-processor/ChibiOS//os/ext/CMSIS/ST/stm32f407xx.h"
 367              		.file 16 "../../lib/e-puck2_main-processor/ChibiOS//os/rt/ports/ARMCMx/chcore.h"
 368              		.file 17 "../../lib/e-puck2_main-processor/ChibiOS//os/rt/ports/ARMCMx/chcore_v7m.h"
 369              		.file 18 "../../lib/e-puck2_main-processor/ChibiOS//os/rt/include/chdebug.h"
 370              		.file 19 "../../lib/e-puck2_main-processor/ChibiOS//os/rt/include/chtm.h"
 371              		.file 20 "../../lib/e-puck2_main-processor/ChibiOS//os/rt/include/chstats.h"
 372              		.file 21 "../../lib/e-puck2_main-processor/ChibiOS//os/rt/include/chsem.h"
 373              		.file 22 "../../lib/e-puck2_main-processor/ChibiOS//os/rt/include/chmtx.h"
 374              		.file 23 "../../lib/e-puck2_main-processor/ChibiOS//os/rt/include/chregistry.h"
 375              		.file 24 "../../lib/e-puck2_main-processor/ChibiOS//os/rt/include/chevents.h"
 376              		.file 25 "../../lib/e-puck2_main-processor/ChibiOS//os/rt/include/chqueues.h"
 377              		.file 26 "../../lib/e-puck2_main-processor/ChibiOS//os/rt/include/chstreams.h"
 378              		.file 27 "../../lib/e-puck2_main-processor/ChibiOS//os/hal/ports/STM32/STM32F4xx/stm32_dma.h"
 379              		.file 28 "../../lib/e-puck2_main-processor/ChibiOS//os/hal/include/hal_ioblock.h"
 380              		.file 29 "../../lib/e-puck2_main-processor/ChibiOS//os/hal/ports/STM32/LLD/GPIOv2/pal_lld.h"
 381              		.file 30 "../../lib/e-puck2_main-processor/ChibiOS//os/hal/include/adc.h"
 382              		.file 31 "../../lib/e-puck2_main-processor/ChibiOS//os/hal/ports/STM32/STM32F4xx/adc_lld.h"
 383              		.file 32 "../../lib/e-puck2_main-processor/ChibiOS//os/hal/include/can.h"
 384              		.file 33 "../../lib/e-puck2_main-processor/ChibiOS//os/hal/ports/STM32/LLD/can_lld.h"
 385              		.file 34 "../../lib/e-puck2_main-processor/ChibiOS//os/hal/include/dac.h"
 386              		.file 35 "../../lib/e-puck2_main-processor/ChibiOS//os/hal/ports/STM32/LLD/DACv1/dac_lld.h"
 387              		.file 36 "../../lib/e-puck2_main-processor/ChibiOS//os/hal/include/ext.h"
 388              		.file 37 "../../lib/e-puck2_main-processor/ChibiOS//os/hal/ports/STM32/LLD/ext_lld.h"
 389              		.file 38 "../../lib/e-puck2_main-processor/ChibiOS//os/hal/include/gpt.h"
 390              		.file 39 "../../lib/e-puck2_main-processor/ChibiOS//os/hal/ports/STM32/LLD/TIMv1/gpt_lld.h"
 391              		.file 40 "../../lib/e-puck2_main-processor/ChibiOS//os/hal/ports/STM32/LLD/TIMv1/stm32_tim.h"
 392              		.file 41 "../../lib/e-puck2_main-processor/ChibiOS//os/hal/include/i2c.h"
 393              		.file 42 "../../lib/e-puck2_main-processor/ChibiOS//os/hal/ports/STM32/LLD/I2Cv1/i2c_lld.h"
 394              		.file 43 "../../lib/e-puck2_main-processor/ChibiOS//os/hal/include/i2s.h"
ARM GAS  C:\Users\ELIOOV~1\AppData\Local\Temp\cc7MvtNq.s 			page 8


 395              		.file 44 "../../lib/e-puck2_main-processor/ChibiOS//os/hal/ports/STM32/LLD/SPIv1/i2s_lld.h"
 396              		.file 45 "../../lib/e-puck2_main-processor/ChibiOS//os/hal/include/pwm.h"
 397              		.file 46 "../../lib/e-puck2_main-processor/ChibiOS//os/hal/ports/STM32/LLD/TIMv1/pwm_lld.h"
 398              		.file 47 "../../lib/e-puck2_main-processor/ChibiOS//os/hal/include/serial.h"
 399              		.file 48 "../../lib/e-puck2_main-processor/ChibiOS//os/hal/ports/STM32/LLD/USARTv1/serial_lld.h"
 400              		.file 49 "../../lib/e-puck2_main-processor/ChibiOS//os/hal/include/sdc.h"
 401              		.file 50 "../../lib/e-puck2_main-processor/ChibiOS//os/hal/ports/STM32/LLD/sdc_lld.h"
 402              		.file 51 "../../lib/e-puck2_main-processor/ChibiOS//os/hal/include/spi.h"
 403              		.file 52 "../../lib/e-puck2_main-processor/ChibiOS//os/hal/ports/STM32/LLD/SPIv1/spi_lld.h"
 404              		.file 53 "../../lib/e-puck2_main-processor/ChibiOS//os/hal/include/usb.h"
 405              		.file 54 "../../lib/e-puck2_main-processor/ChibiOS//os/hal/ports/STM32/LLD/OTGv1/usb_lld.h"
 406              		.file 55 "../../lib/e-puck2_main-processor/ChibiOS//os/hal/ports/STM32/LLD/OTGv1/stm32_otg.h"
 407              		.file 56 "../../lib/e-puck2_main-processor/ChibiOS//os/hal/include/serial_usb.h"
 408              		.file 57 "../../lib/e-puck2_main-processor/src/usbcfg.h"
 409              		.file 58 "../../lib/e-puck2_main-processor/ChibiOS_ext/os/hal/include/../ports/STM32/STM32F4xx/dcm
 410              		.file 59 "c:\\eclipse_e-puck2\\tools\\gcc-arm-none-eabi-7-2017-q4-major-win32\\arm-none-eabi\\incl
 411              		.file 60 "../../lib/e-puck2_main-processor/src/msgbus/messagebus.h"
 412              		.file 61 "../../lib/e-puck2_main-processor/src/parameter/parameter.h"
 413              		.file 62 "./main.h"
 414              		.file 63 "../../lib/e-puck2_main-processor/ChibiOS//os/rt/include/chsys.h"
 415              		.file 64 "../../lib/e-puck2_main-processor/ChibiOS//os/hal/include/hal.h"
 416              		.file 65 "../../lib/e-puck2_main-processor/src/memory_protection.h"
 417              		.file 66 "../../lib/e-puck2_main-processor/src/camera/dcmi_camera.h"
 418              		.file 67 "../../lib/e-puck2_main-processor/src/camera/po8030.h"
 419              		.file 68 "../../lib/e-puck2_main-processor/src/motors.h"
 420              		.file 69 "../../lib/e-puck2_main-processor/src/sensors/VL53L0X/VL53L0X.h"
 421              		.file 70 "./scan.h"
 422              		.file 71 "../../lib/e-puck2_main-processor/ChibiOS//os/rt/include/chthreads.h"