ARM GAS  C:\Users\ELIOOV~1\AppData\Local\Temp\ccTYBas9.s 			page 1


   1              		.cpu cortex-m4
   2              		.eabi_attribute 27, 1
   3              		.eabi_attribute 28, 1
   4              		.eabi_attribute 20, 1
   5              		.eabi_attribute 21, 1
   6              		.eabi_attribute 23, 3
   7              		.eabi_attribute 24, 1
   8              		.eabi_attribute 25, 1
   9              		.eabi_attribute 26, 1
  10              		.eabi_attribute 30, 2
  11              		.eabi_attribute 34, 1
  12              		.eabi_attribute 18, 4
  13              		.file	"moves.c"
  14              		.text
  15              	.Ltext0:
  16              		.cfi_sections	.debug_frame
  17              		.section	.text.motors_set_pos,"ax",%progbits
  18              		.align	1
  19              		.p2align 4,,15
  20              		.global	motors_set_pos
  21              		.syntax unified
  22              		.thumb
  23              		.thumb_func
  24              		.fpu fpv4-sp-d16
  25              		.type	motors_set_pos, %function
  26              	motors_set_pos:
  27              	.LFB256:
  28              		.file 1 "moves.c"
  29              		.loc 1 8 0
  30              		.cfi_startproc
  31              		@ args = 0, pretend = 0, frame = 8
  32              		@ frame_needed = 0, uses_anonymous_args = 0
  33              	.LVL0:
  34 0000 2DE9F041 		push	{r4, r5, r6, r7, r8, lr}
  35              		.cfi_def_cfa_offset 24
  36              		.cfi_offset 4, -24
  37              		.cfi_offset 5, -20
  38              		.cfi_offset 6, -16
  39              		.cfi_offset 7, -12
  40              		.cfi_offset 8, -8
  41              		.cfi_offset 14, -4
  42 0004 DFF88C80 		ldr	r8, .L13
  43 0008 82B0     		sub	sp, sp, #8
  44              		.cfi_def_cfa_offset 32
  45              		.loc 1 8 0
  46 000a 1D46     		mov	r5, r3
  47 000c 0646     		mov	r6, r0
  48 000e D8F80030 		ldr	r3, [r8]
  49              	.LVL1:
  50 0012 0193     		str	r3, [sp, #4]
  51              	.LVL2:
  52              		.loc 1 13 0
  53 0014 1046     		mov	r0, r2
  54              	.LVL3:
  55              		.loc 1 8 0
  56 0016 0F46     		mov	r7, r1
  57              		.loc 1 13 0
ARM GAS  C:\Users\ELIOOV~1\AppData\Local\Temp\ccTYBas9.s 			page 2


  58 0018 FFF7FEFF 		bl	left_motor_set_speed
  59              	.LVL4:
  60              		.loc 1 14 0
  61 001c 2846     		mov	r0, r5
  62 001e FFF7FEFF 		bl	right_motor_set_speed
  63              	.LVL5:
  64              		.loc 1 11 0
  65 0022 0024     		movs	r4, #0
  66              		.loc 1 10 0
  67 0024 2546     		mov	r5, r4
  68              	.LVL6:
  69              	.L2:
  70              		.loc 1 16 0
  71 0026 002D     		cmp	r5, #0
  72 0028 B8BF     		it	lt
  73 002a 6D42     		rsblt	r5, r5, #0
  74              	.LVL7:
  75 002c B542     		cmp	r5, r6
  76 002e 07DB     		blt	.L5
  77 0030 002C     		cmp	r4, #0
  78 0032 B8BF     		it	lt
  79 0034 6442     		rsblt	r4, r4, #0
  80              	.LVL8:
  81 0036 BC42     		cmp	r4, r7
  82 0038 ACBF     		ite	ge
  83 003a 0024     		movge	r4, #0
  84 003c 0124     		movlt	r4, #1
  85 003e CCB1     		cbz	r4, .L10
  86              	.L5:
  87              		.loc 1 18 0
  88 0040 FFF7FEFF 		bl	left_motor_get_pos
  89              	.LVL9:
  90 0044 0546     		mov	r5, r0
  91              	.LVL10:
  92              		.loc 1 19 0
  93 0046 FFF7FEFF 		bl	right_motor_get_pos
  94              	.LVL11:
  95              		.loc 1 21 0
  96 004a 85EAE573 		eor	r3, r5, r5, asr #31
  97 004e A3EBE573 		sub	r3, r3, r5, asr #31
  98 0052 B342     		cmp	r3, r6
  99              		.loc 1 19 0
 100 0054 0446     		mov	r4, r0
 101              	.LVL12:
 102              		.loc 1 21 0
 103 0056 09DA     		bge	.L11
 104              	.LVL13:
 105              	.L3:
 106              		.loc 1 25 0
 107 0058 84EAE473 		eor	r3, r4, r4, asr #31
 108 005c A3EBE473 		sub	r3, r3, r4, asr #31
 109 0060 BB42     		cmp	r3, r7
 110 0062 E0DB     		blt	.L2
 111              		.loc 1 26 0
 112 0064 0020     		movs	r0, #0
 113 0066 FFF7FEFF 		bl	right_motor_set_speed
 114              	.LVL14:
ARM GAS  C:\Users\ELIOOV~1\AppData\Local\Temp\ccTYBas9.s 			page 3


 115 006a DCE7     		b	.L2
 116              	.LVL15:
 117              	.L11:
 118              		.loc 1 22 0
 119 006c 0020     		movs	r0, #0
 120              	.LVL16:
 121 006e FFF7FEFF 		bl	left_motor_set_speed
 122              	.LVL17:
 123 0072 F1E7     		b	.L3
 124              	.LVL18:
 125              	.L10:
 126              		.loc 1 30 0
 127 0074 2046     		mov	r0, r4
 128 0076 FFF7FEFF 		bl	left_motor_set_pos
 129              	.LVL19:
 130              		.loc 1 31 0
 131 007a 019A     		ldr	r2, [sp, #4]
 132 007c D8F80030 		ldr	r3, [r8]
 133 0080 9A42     		cmp	r2, r3
 134 0082 05D1     		bne	.L12
 135 0084 2046     		mov	r0, r4
 136              		.loc 1 32 0
 137 0086 02B0     		add	sp, sp, #8
 138              		.cfi_remember_state
 139              		.cfi_def_cfa_offset 24
 140              		@ sp needed
 141 0088 BDE8F041 		pop	{r4, r5, r6, r7, r8, lr}
 142              		.cfi_restore 14
 143              		.cfi_restore 8
 144              		.cfi_restore 7
 145              		.cfi_restore 6
 146              		.cfi_restore 5
 147              		.cfi_restore 4
 148              		.cfi_def_cfa_offset 0
 149              	.LVL20:
 150              		.loc 1 31 0
 151 008c FFF7FEBF 		b	right_motor_set_pos
 152              	.LVL21:
 153              	.L12:
 154              		.cfi_restore_state
 155 0090 FFF7FEFF 		bl	__stack_chk_fail
 156              	.LVL22:
 157              	.L14:
 158              		.align	2
 159              	.L13:
 160 0094 00000000 		.word	__stack_chk_guard
 161              		.cfi_endproc
 162              	.LFE256:
 163              		.size	motors_set_pos, .-motors_set_pos
 164              		.section	.text.pluck,"ax",%progbits
 165              		.align	1
 166              		.p2align 4,,15
 167              		.global	pluck
 168              		.syntax unified
 169              		.thumb
 170              		.thumb_func
 171              		.fpu fpv4-sp-d16
ARM GAS  C:\Users\ELIOOV~1\AppData\Local\Temp\ccTYBas9.s 			page 4


 172              		.type	pluck, %function
 173              	pluck:
 174              	.LFB257:
 175              		.loc 1 34 0
 176              		.cfi_startproc
 177              		@ args = 0, pretend = 0, frame = 8
 178              		@ frame_needed = 0, uses_anonymous_args = 0
 179 0000 10B5     		push	{r4, lr}
 180              		.cfi_def_cfa_offset 8
 181              		.cfi_offset 4, -8
 182              		.cfi_offset 14, -4
 183 0002 224C     		ldr	r4, .L19
 184 0004 82B0     		sub	sp, sp, #8
 185              		.cfi_def_cfa_offset 16
 186              		.loc 1 35 0
 187 0006 4FF49673 		mov	r3, #300
 188 000a C821     		movs	r1, #200
 189              		.loc 1 34 0
 190 000c 2268     		ldr	r2, [r4]
 191 000e 0192     		str	r2, [sp, #4]
 192              		.loc 1 35 0
 193 0010 0846     		mov	r0, r1
 194 0012 1A46     		mov	r2, r3
 195 0014 FFF7FEFF 		bl	motors_set_pos
 196              	.LVL23:
 197              		.loc 1 36 0
 198 0018 4FF47A70 		mov	r0, #1000
 199 001c FFF7FEFF 		bl	chThdSleep
 200              	.LVL24:
 201              		.loc 1 37 0
 202 0020 40F24C43 		movw	r3, #1100
 203 0024 C821     		movs	r1, #200
 204 0026 1A46     		mov	r2, r3
 205 0028 0846     		mov	r0, r1
 206 002a FFF7FEFF 		bl	motors_set_pos
 207              	.LVL25:
 208              		.loc 1 38 0
 209 002e 4FF47A70 		mov	r0, #1000
 210 0032 FFF7FEFF 		bl	chThdSleep
 211              	.LVL26:
 212              		.loc 1 39 0
 213 0036 164B     		ldr	r3, .L19+4
 214 0038 4FF4C871 		mov	r1, #400
 215 003c 1A46     		mov	r2, r3
 216 003e 0846     		mov	r0, r1
 217 0040 FFF7FEFF 		bl	motors_set_pos
 218              	.LVL27:
 219              		.loc 1 40 0
 220 0044 4FF47A70 		mov	r0, #1000
 221 0048 FFF7FEFF 		bl	chThdSleep
 222              	.LVL28:
 223              		.loc 1 41 0
 224 004c 40F24311 		movw	r1, #323
 225 0050 0846     		mov	r0, r1
 226 0052 0F4B     		ldr	r3, .L19+4
 227 0054 4FF4C872 		mov	r2, #400
 228 0058 FFF7FEFF 		bl	motors_set_pos
ARM GAS  C:\Users\ELIOOV~1\AppData\Local\Temp\ccTYBas9.s 			page 5


 229              	.LVL29:
 230              		.loc 1 42 0
 231 005c 4FF47A70 		mov	r0, #1000
 232 0060 FFF7FEFF 		bl	chThdSleep
 233              	.LVL30:
 234              		.loc 1 43 0
 235 0064 4FF4C873 		mov	r3, #400
 236 0068 4FF49661 		mov	r1, #1200
 237 006c 1A46     		mov	r2, r3
 238 006e 0846     		mov	r0, r1
 239 0070 FFF7FEFF 		bl	motors_set_pos
 240              	.LVL31:
 241              		.loc 1 44 0
 242 0074 4FF47A70 		mov	r0, #1000
 243 0078 FFF7FEFF 		bl	chThdSleep
 244              	.LVL32:
 245              		.loc 1 45 0
 246 007c 019A     		ldr	r2, [sp, #4]
 247 007e 2368     		ldr	r3, [r4]
 248 0080 9A42     		cmp	r2, r3
 249 0082 01D1     		bne	.L18
 250 0084 02B0     		add	sp, sp, #8
 251              		.cfi_remember_state
 252              		.cfi_def_cfa_offset 8
 253              		@ sp needed
 254 0086 10BD     		pop	{r4, pc}
 255              	.L18:
 256              		.cfi_restore_state
 257 0088 FFF7FEFF 		bl	__stack_chk_fail
 258              	.LVL33:
 259              	.L20:
 260              		.align	2
 261              	.L19:
 262 008c 00000000 		.word	__stack_chk_guard
 263 0090 70FEFFFF 		.word	-400
 264              		.cfi_endproc
 265              	.LFE257:
 266              		.size	pluck, .-pluck
 267              		.section	.text.deposit,"ax",%progbits
 268              		.align	1
 269              		.p2align 4,,15
 270              		.global	deposit
 271              		.syntax unified
 272              		.thumb
 273              		.thumb_func
 274              		.fpu fpv4-sp-d16
 275              		.type	deposit, %function
 276              	deposit:
 277              	.LFB258:
 278              		.loc 1 47 0
 279              		.cfi_startproc
 280              		@ args = 0, pretend = 0, frame = 8
 281              		@ frame_needed = 0, uses_anonymous_args = 0
 282 0000 10B5     		push	{r4, lr}
 283              		.cfi_def_cfa_offset 8
 284              		.cfi_offset 4, -8
 285              		.cfi_offset 14, -4
ARM GAS  C:\Users\ELIOOV~1\AppData\Local\Temp\ccTYBas9.s 			page 6


 286 0002 194C     		ldr	r4, .L25
 287 0004 82B0     		sub	sp, sp, #8
 288              		.cfi_def_cfa_offset 16
 289              		.loc 1 48 0
 290 0006 4FF42F73 		mov	r3, #700
 291 000a C821     		movs	r1, #200
 292              		.loc 1 47 0
 293 000c 2268     		ldr	r2, [r4]
 294 000e 0192     		str	r2, [sp, #4]
 295              		.loc 1 48 0
 296 0010 0846     		mov	r0, r1
 297 0012 1A46     		mov	r2, r3
 298 0014 FFF7FEFF 		bl	motors_set_pos
 299              	.LVL34:
 300              		.loc 1 49 0
 301 0018 144B     		ldr	r3, .L25+4
 302 001a C821     		movs	r1, #200
 303 001c 1A46     		mov	r2, r3
 304 001e 0846     		mov	r0, r1
 305 0020 FFF7FEFF 		bl	motors_set_pos
 306              	.LVL35:
 307              		.loc 1 50 0
 308 0024 4FF42F73 		mov	r3, #700
 309 0028 C821     		movs	r1, #200
 310 002a 1A46     		mov	r2, r3
 311 002c 0846     		mov	r0, r1
 312 002e FFF7FEFF 		bl	motors_set_pos
 313              	.LVL36:
 314              		.loc 1 51 0
 315 0032 0E4B     		ldr	r3, .L25+4
 316 0034 C821     		movs	r1, #200
 317 0036 1A46     		mov	r2, r3
 318 0038 0846     		mov	r0, r1
 319 003a FFF7FEFF 		bl	motors_set_pos
 320              	.LVL37:
 321              		.loc 1 52 0
 322 003e 4FF42F73 		mov	r3, #700
 323 0042 C821     		movs	r1, #200
 324 0044 1A46     		mov	r2, r3
 325 0046 0846     		mov	r0, r1
 326 0048 FFF7FEFF 		bl	motors_set_pos
 327              	.LVL38:
 328              		.loc 1 53 0
 329 004c 074B     		ldr	r3, .L25+4
 330 004e C821     		movs	r1, #200
 331 0050 1A46     		mov	r2, r3
 332 0052 0846     		mov	r0, r1
 333 0054 FFF7FEFF 		bl	motors_set_pos
 334              	.LVL39:
 335              		.loc 1 54 0
 336 0058 019A     		ldr	r2, [sp, #4]
 337 005a 2368     		ldr	r3, [r4]
 338 005c 9A42     		cmp	r2, r3
 339 005e 01D1     		bne	.L24
 340 0060 02B0     		add	sp, sp, #8
 341              		.cfi_remember_state
 342              		.cfi_def_cfa_offset 8
ARM GAS  C:\Users\ELIOOV~1\AppData\Local\Temp\ccTYBas9.s 			page 7


 343              		@ sp needed
 344 0062 10BD     		pop	{r4, pc}
 345              	.L24:
 346              		.cfi_restore_state
 347 0064 FFF7FEFF 		bl	__stack_chk_fail
 348              	.LVL40:
 349              	.L26:
 350              		.align	2
 351              	.L25:
 352 0068 00000000 		.word	__stack_chk_guard
 353 006c 44FDFFFF 		.word	-700
 354              		.cfi_endproc
 355              	.LFE258:
 356              		.size	deposit, .-deposit
 357              		.text
 358              	.Letext0:
 359              		.file 2 "c:\\eclipse_e-puck2\\tools\\gcc-arm-none-eabi-7-2017-q4-major-win32\\lib\\gcc\\arm-none-e
 360              		.file 3 "c:\\eclipse_e-puck2\\tools\\gcc-arm-none-eabi-7-2017-q4-major-win32\\arm-none-eabi\\inclu
 361              		.file 4 "c:\\eclipse_e-puck2\\tools\\gcc-arm-none-eabi-7-2017-q4-major-win32\\arm-none-eabi\\inclu
 362              		.file 5 "../../lib/e-puck2_main-processor/ChibiOS//os/rt/ports/ARMCMx/compilers/GCC/chtypes.h"
 363              		.file 6 "../../lib/e-puck2_main-processor/ChibiOS//os/rt/include/chsystypes.h"
 364              		.file 7 "../../lib/e-puck2_main-processor/ChibiOS//os/rt/include/chschd.h"
 365              		.file 8 "../../lib/e-puck2_main-processor/ChibiOS//os/ext/CMSIS/include/core_cm4.h"
 366              		.file 9 "../../lib/e-puck2_main-processor/ChibiOS//os/ext/CMSIS/ST/system_stm32f4xx.h"
 367              		.file 10 "../../lib/e-puck2_main-processor/ChibiOS//os/ext/CMSIS/ST/stm32f407xx.h"
 368              		.file 11 "../../lib/e-puck2_main-processor/ChibiOS//os/rt/ports/ARMCMx/chcore.h"
 369              		.file 12 "../../lib/e-puck2_main-processor/ChibiOS//os/rt/ports/ARMCMx/chcore_v7m.h"
 370              		.file 13 "../../lib/e-puck2_main-processor/ChibiOS//os/rt/include/chdebug.h"
 371              		.file 14 "../../lib/e-puck2_main-processor/ChibiOS//os/rt/include/chtm.h"
 372              		.file 15 "../../lib/e-puck2_main-processor/ChibiOS//os/rt/include/chstats.h"
 373              		.file 16 "../../lib/e-puck2_main-processor/ChibiOS//os/rt/include/chsem.h"
 374              		.file 17 "../../lib/e-puck2_main-processor/ChibiOS//os/rt/include/chmtx.h"
 375              		.file 18 "../../lib/e-puck2_main-processor/ChibiOS//os/rt/include/chregistry.h"
 376              		.file 19 "../../lib/e-puck2_main-processor/ChibiOS//os/rt/include/chevents.h"
 377              		.file 20 "../../lib/e-puck2_main-processor/ChibiOS//os/rt/include/chqueues.h"
 378              		.file 21 "../../lib/e-puck2_main-processor/ChibiOS//os/hal/ports/STM32/STM32F4xx/stm32_dma.h"
 379              		.file 22 "../../lib/e-puck2_main-processor/ChibiOS//os/hal/include/hal_ioblock.h"
 380              		.file 23 "../../lib/e-puck2_main-processor/ChibiOS//os/hal/ports/STM32/LLD/GPIOv2/pal_lld.h"
 381              		.file 24 "../../lib/e-puck2_main-processor/ChibiOS//os/hal/include/adc.h"
 382              		.file 25 "../../lib/e-puck2_main-processor/ChibiOS//os/hal/ports/STM32/STM32F4xx/adc_lld.h"
 383              		.file 26 "../../lib/e-puck2_main-processor/ChibiOS//os/hal/include/can.h"
 384              		.file 27 "../../lib/e-puck2_main-processor/ChibiOS//os/hal/ports/STM32/LLD/can_lld.h"
 385              		.file 28 "../../lib/e-puck2_main-processor/ChibiOS//os/hal/include/dac.h"
 386              		.file 29 "../../lib/e-puck2_main-processor/ChibiOS//os/hal/ports/STM32/LLD/DACv1/dac_lld.h"
 387              		.file 30 "../../lib/e-puck2_main-processor/ChibiOS//os/hal/include/ext.h"
 388              		.file 31 "../../lib/e-puck2_main-processor/ChibiOS//os/hal/ports/STM32/LLD/ext_lld.h"
 389              		.file 32 "../../lib/e-puck2_main-processor/ChibiOS//os/hal/include/gpt.h"
 390              		.file 33 "../../lib/e-puck2_main-processor/ChibiOS//os/hal/ports/STM32/LLD/TIMv1/gpt_lld.h"
 391              		.file 34 "../../lib/e-puck2_main-processor/ChibiOS//os/hal/ports/STM32/LLD/TIMv1/stm32_tim.h"
 392              		.file 35 "../../lib/e-puck2_main-processor/ChibiOS//os/hal/include/i2c.h"
 393              		.file 36 "../../lib/e-puck2_main-processor/ChibiOS//os/hal/ports/STM32/LLD/I2Cv1/i2c_lld.h"
 394              		.file 37 "../../lib/e-puck2_main-processor/ChibiOS//os/hal/include/i2s.h"
 395              		.file 38 "../../lib/e-puck2_main-processor/ChibiOS//os/hal/ports/STM32/LLD/SPIv1/i2s_lld.h"
 396              		.file 39 "../../lib/e-puck2_main-processor/ChibiOS//os/hal/include/pwm.h"
 397              		.file 40 "../../lib/e-puck2_main-processor/ChibiOS//os/hal/ports/STM32/LLD/TIMv1/pwm_lld.h"
 398              		.file 41 "../../lib/e-puck2_main-processor/ChibiOS//os/hal/include/serial.h"
 399              		.file 42 "../../lib/e-puck2_main-processor/ChibiOS//os/hal/ports/STM32/LLD/USARTv1/serial_lld.h"
ARM GAS  C:\Users\ELIOOV~1\AppData\Local\Temp\ccTYBas9.s 			page 8


 400              		.file 43 "../../lib/e-puck2_main-processor/ChibiOS//os/hal/include/sdc.h"
 401              		.file 44 "../../lib/e-puck2_main-processor/ChibiOS//os/hal/ports/STM32/LLD/sdc_lld.h"
 402              		.file 45 "../../lib/e-puck2_main-processor/ChibiOS//os/hal/include/spi.h"
 403              		.file 46 "../../lib/e-puck2_main-processor/ChibiOS//os/hal/ports/STM32/LLD/SPIv1/spi_lld.h"
 404              		.file 47 "../../lib/e-puck2_main-processor/ChibiOS//os/hal/include/usb.h"
 405              		.file 48 "../../lib/e-puck2_main-processor/ChibiOS//os/hal/ports/STM32/LLD/OTGv1/usb_lld.h"
 406              		.file 49 "../../lib/e-puck2_main-processor/ChibiOS//os/hal/ports/STM32/LLD/OTGv1/stm32_otg.h"
 407              		.file 50 "c:\\eclipse_e-puck2\\tools\\gcc-arm-none-eabi-7-2017-q4-major-win32\\arm-none-eabi\\incl
 408              		.file 51 "c:\\eclipse_e-puck2\\tools\\gcc-arm-none-eabi-7-2017-q4-major-win32\\arm-none-eabi\\incl
 409              		.file 52 "c:\\eclipse_e-puck2\\tools\\gcc-arm-none-eabi-7-2017-q4-major-win32\\arm-none-eabi\\incl
 410              		.file 53 "c:\\eclipse_e-puck2\\tools\\gcc-arm-none-eabi-7-2017-q4-major-win32\\arm-none-eabi\\incl
 411              		.file 54 "../../lib/e-puck2_main-processor/ChibiOS//os/rt/include/chthreads.h"
 412              		.file 55 "../../lib/e-puck2_main-processor/src/motors.h"