ARM GAS  C:\Users\ELIOOV~1\AppData\Local\Temp\ccRudcoA.s 			page 1


   1              		.cpu cortex-m4
   2              		.eabi_attribute 27, 1
   3              		.eabi_attribute 28, 1
   4              		.eabi_attribute 20, 1
   5              		.eabi_attribute 21, 1
   6              		.eabi_attribute 23, 3
   7              		.eabi_attribute 24, 1
   8              		.eabi_attribute 25, 1
   9              		.eabi_attribute 26, 1
  10              		.eabi_attribute 30, 2
  11              		.eabi_attribute 34, 1
  12              		.eabi_attribute 18, 4
  13              		.file	"pi_regulator.c"
  14              		.text
  15              	.Ltext0:
  16              		.cfi_sections	.debug_frame
  17              		.section	.text.PiRegulator,"ax",%progbits
  18              		.align	1
  19              		.p2align 4,,15
  20              		.syntax unified
  21              		.thumb
  22              		.thumb_func
  23              		.fpu fpv4-sp-d16
  24              		.type	PiRegulator, %function
  25              	PiRegulator:
  26              	.LFB258:
  27              		.file 1 "pi_regulator.c"
  28              		.loc 1 45 0
  29              		.cfi_startproc
  30              		@ args = 0, pretend = 0, frame = 8
  31              		@ frame_needed = 0, uses_anonymous_args = 0
  32              	.LVL0:
  33 0000 2DE9F041 		push	{r4, r5, r6, r7, r8, lr}
  34              		.cfi_def_cfa_offset 24
  35              		.cfi_offset 4, -24
  36              		.cfi_offset 5, -20
  37              		.cfi_offset 6, -16
  38              		.cfi_offset 7, -12
  39              		.cfi_offset 8, -8
  40              		.cfi_offset 14, -4
  41 0004 2DED068B 		vpush.64	{d8, d9, d10}
  42              		.cfi_def_cfa_offset 48
  43              		.cfi_offset 80, -48
  44              		.cfi_offset 81, -44
  45              		.cfi_offset 82, -40
  46              		.cfi_offset 83, -36
  47              		.cfi_offset 84, -32
  48              		.cfi_offset 85, -28
  49              	.LBB54:
  50              	.LBB55:
  51              		.file 2 "../../lib/e-puck2_main-processor/ChibiOS//os/rt/include/chregistry.h"
  52              		.loc 2 135 0
  53 0008 404D     		ldr	r5, .L18
  54              	.LBE55:
  55              	.LBE54:
  56              		.loc 1 45 0
  57 000a 414B     		ldr	r3, .L18+4
ARM GAS  C:\Users\ELIOOV~1\AppData\Local\Temp\ccRudcoA.s 			page 2


  58              	.LBB58:
  59              	.LBB56:
  60              		.loc 2 135 0
  61 000c AA69     		ldr	r2, [r5, #24]
  62 000e 4149     		ldr	r1, .L18+8
  63              	.LBE56:
  64              	.LBE58:
  65              		.loc 1 45 0
  66 0010 1B68     		ldr	r3, [r3]
  67 0012 414F     		ldr	r7, .L18+12
  68              	.LBB59:
  69              	.LBB60:
  70              	.LBB61:
  71              		.loc 1 26 0
  72 0014 9FED418A 		vldr.32	s16, .L18+16
  73              		.loc 1 33 0
  74 0018 DFED418A 		vldr.32	s17, .L18+20
  75              		.loc 1 39 0
  76 001c 9FED419A 		vldr.32	s18, .L18+24
  77              		.loc 1 35 0
  78 0020 DFED419A 		vldr.32	s19, .L18+28
  79              		.loc 1 36 0
  80 0024 DFED41AA 		vldr.32	s21, .L18+32
  81              		.loc 1 34 0
  82 0028 9FED41AA 		vldr.32	s20, .L18+36
  83              	.LBE61:
  84              	.LBE60:
  85              	.LBE59:
  86              	.LBB80:
  87              	.LBB57:
  88              		.loc 2 135 0
  89 002c 9161     		str	r1, [r2, #24]
  90              	.LBE57:
  91              	.LBE80:
  92              		.loc 1 45 0
  93 002e 82B0     		sub	sp, sp, #8
  94              		.cfi_def_cfa_offset 56
  95              		.loc 1 45 0
  96 0030 0193     		str	r3, [sp, #4]
  97              	.LVL1:
  98 0032 11E0     		b	.L9
  99              	.LVL2:
 100              	.L17:
 101              	.LBB81:
 102              		.loc 1 62 0
 103 0034 A0F5A070 		sub	r0, r0, #320
 104              	.LVL3:
 105 0038 00B2     		sxth	r0, r0
 106              	.LVL4:
 107 003a 4000     		lsls	r0, r0, #1
 108 003c 04EB0008 		add	r8, r4, r0
 109 0040 241A     		subs	r4, r4, r0
 110              	.L8:
 111              	.LVL5:
 112              		.loc 1 70 0
 113 0042 2046     		mov	r0, r4
 114 0044 FFF7FEFF 		bl	right_motor_set_speed
ARM GAS  C:\Users\ELIOOV~1\AppData\Local\Temp\ccRudcoA.s 			page 3


 115              	.LVL6:
 116              		.loc 1 71 0
 117 0048 4046     		mov	r0, r8
 118 004a FFF7FEFF 		bl	left_motor_set_speed
 119              	.LVL7:
 120              		.loc 1 74 0
 121 004e 06F10A01 		add	r1, r6, #10
 122 0052 3046     		mov	r0, r6
 123 0054 FFF7FEFF 		bl	chThdSleepUntilWindowed
 124              	.LVL8:
 125              	.L9:
 126              	.LBB64:
 127              	.LBB65:
 128              	.LBB66:
 129              	.LBB67:
 130              	.LBB68:
 131              	.LBB69:
 132              	.LBB70:
 133              		.file 3 "../../lib/e-puck2_main-processor/ChibiOS//os/ext/CMSIS/include/core_cmFunc.h"
 134              		.loc 3 546 0
 135 0058 2023     		movs	r3, #32
 136              		.syntax unified
 137              	@ 546 "../../lib/e-puck2_main-processor/ChibiOS//os/ext/CMSIS/include/core_cmFunc.h" 1
 138 005a 83F31188 		MSR basepri, r3
 139              	@ 0 "" 2
 140              	.LVL9:
 141              		.thumb
 142              		.syntax unified
 143              	.LBE70:
 144              	.LBE69:
 145              	.LBE68:
 146              		.file 4 "../../lib/e-puck2_main-processor/ChibiOS//os/rt/include/chsys.h"
 147              		.loc 4 349 0
 148 005e FFF7FEFF 		bl	_stats_start_measure_crit_thd
 149              	.LVL10:
 150              		.loc 4 350 0
 151 0062 FFF7FEFF 		bl	_dbg_check_lock
 152              	.LVL11:
 153              	.LBE67:
 154              	.LBE66:
 155              	.LBB71:
 156              	.LBB72:
 157              		.file 5 "../../lib/e-puck2_main-processor/ChibiOS//os/rt/include/chvt.h"
 158              		.loc 5 231 0
 159 0066 AE6A     		ldr	r6, [r5, #40]
 160              	.LBE72:
 161              	.LBE71:
 162              	.LBB73:
 163              	.LBB74:
 164              		.loc 4 360 0
 165 0068 FFF7FEFF 		bl	_dbg_check_unlock
 166              	.LVL12:
 167              		.loc 4 361 0
 168 006c FFF7FEFF 		bl	_stats_stop_measure_crit_thd
 169              	.LVL13:
 170              		.loc 4 367 0
 171 0070 2B68     		ldr	r3, [r5]
ARM GAS  C:\Users\ELIOOV~1\AppData\Local\Temp\ccRudcoA.s 			page 4


 172 0072 AB42     		cmp	r3, r5
 173 0074 07D0     		beq	.L2
 174 0076 AA69     		ldr	r2, [r5, #24]
 175 0078 9B68     		ldr	r3, [r3, #8]
 176 007a 9268     		ldr	r2, [r2, #8]
 177 007c 9A42     		cmp	r2, r3
 178 007e 02D2     		bcs	.L2
 179 0080 2C48     		ldr	r0, .L18+40
 180 0082 FFF7FEFF 		bl	chSysHalt
 181              	.LVL14:
 182              	.L2:
 183              	.LBB75:
 184              	.LBB76:
 185              	.LBB77:
 186              		.loc 3 546 0
 187 0086 0024     		movs	r4, #0
 188              		.syntax unified
 189              	@ 546 "../../lib/e-puck2_main-processor/ChibiOS//os/ext/CMSIS/include/core_cmFunc.h" 1
 190 0088 84F31188 		MSR basepri, r4
 191              	@ 0 "" 2
 192              	.LVL15:
 193              		.thumb
 194              		.syntax unified
 195              	.LBE77:
 196              	.LBE76:
 197              	.LBE75:
 198              	.LBE74:
 199              	.LBE73:
 200              	.LBE65:
 201              	.LBE64:
 202              		.loc 1 60 0
 203 008c FFF7FEFF 		bl	get_distance_cm
 204              	.LVL16:
 205 0090 07EE900A 		vmov	s15, r0	@ int
 206 0094 B8EEE77A 		vcvt.f32.s32	s14, s15
 207              	.LVL17:
 208              	.LBB78:
 209              	.LBB62:
 210              		.loc 1 21 0
 211 0098 F2EE047A 		vmov.f32	s15, #1.0e+1
 212 009c 37EE677A 		vsub.f32	s14, s14, s15
 213              	.LVL18:
 214              		.loc 1 26 0
 215 00a0 F0EEC77A 		vabs.f32	s15, s14
 216 00a4 F4EEC87A 		vcmpe.f32	s15, s16
 217 00a8 F1EE10FA 		vmrs	APSR_nzcv, FPSCR
 218 00ac 13D4     		bmi	.L3
 219              		.loc 1 30 0
 220 00ae D7ED007A 		vldr.32	s15, [r7]
 221 00b2 77EE277A 		vadd.f32	s15, s14, s15
 222              		.loc 1 33 0
 223 00b6 F4EEE87A 		vcmpe.f32	s15, s17
 224 00ba F1EE10FA 		vmrs	APSR_nzcv, FPSCR
 225 00be 14DD     		ble	.L14
 226              		.loc 1 34 0
 227 00c0 C7ED008A 		vstr.32	s17, [r7]
 228 00c4 F0EE4A7A 		vmov.f32	s15, s20
ARM GAS  C:\Users\ELIOOV~1\AppData\Local\Temp\ccRudcoA.s 			page 5


 229              	.L6:
 230              	.LVL19:
 231              		.loc 1 39 0
 232 00c8 E7EE097A 		vfma.f32	s15, s14, s18
 233              	.LVL20:
 234              		.loc 1 41 0
 235 00cc FDEEE77A 		vcvt.s32.f32	s15, s15
 236 00d0 17EE903A 		vmov	r3, s15	@ int
 237 00d4 1CB2     		sxth	r4, r3
 238              	.L3:
 239              	.LVL21:
 240              	.LBE62:
 241              	.LBE78:
 242              		.loc 1 62 0
 243 00d6 FFF7FEFF 		bl	get_line_position
 244              	.LVL22:
 245              		.loc 1 65 0
 246 00da 6FF49B73 		mvn	r3, #310
 247              		.loc 1 62 0
 248 00de 80B2     		uxth	r0, r0
 249              	.LVL23:
 250              		.loc 1 65 0
 251 00e0 C318     		adds	r3, r0, r3
 252 00e2 122B     		cmp	r3, #18
 253 00e4 A6D8     		bhi	.L17
 254 00e6 A046     		mov	r8, r4
 255 00e8 ABE7     		b	.L8
 256              	.LVL24:
 257              	.L14:
 258              	.LBB79:
 259              	.LBB63:
 260              		.loc 1 35 0
 261 00ea F4EEE97A 		vcmpe.f32	s15, s19
 262 00ee F1EE10FA 		vmrs	APSR_nzcv, FPSCR
 263 00f2 06D4     		bmi	.L7
 264 00f4 F0EE0C6A 		vmov.f32	s13, #3.5e+0
 265              		.loc 1 30 0
 266 00f8 C7ED007A 		vstr.32	s15, [r7]
 267 00fc 67EEA67A 		vmul.f32	s15, s15, s13
 268 0100 E2E7     		b	.L6
 269              	.L7:
 270              		.loc 1 36 0
 271 0102 F0EE6A7A 		vmov.f32	s15, s21
 272 0106 C7ED009A 		vstr.32	s19, [r7]
 273 010a DDE7     		b	.L6
 274              	.L19:
 275              		.align	2
 276              	.L18:
 277 010c 00000000 		.word	ch
 278 0110 00000000 		.word	__stack_chk_guard
 279 0114 00000000 		.word	.LANCHOR0
 280 0118 00000000 		.word	.LANCHOR2
 281 011c CDCCCC3D 		.word	1036831949
 282 0120 92249D43 		.word	1134371986
 283 0124 00004844 		.word	1145569280
 284 0128 92249DC3 		.word	-1013111662
 285 012c 008089C4 		.word	-997621760
ARM GAS  C:\Users\ELIOOV~1\AppData\Local\Temp\ccRudcoA.s 			page 6


 286 0130 00808944 		.word	1149861888
 287 0134 00000000 		.word	.LANCHOR1
 288              	.LBE63:
 289              	.LBE79:
 290              	.LBE81:
 291              		.cfi_endproc
 292              	.LFE258:
 293              		.size	PiRegulator, .-PiRegulator
 294              		.section	.text.pi_regulator,"ax",%progbits
 295              		.align	1
 296              		.p2align 4,,15
 297              		.global	pi_regulator
 298              		.syntax unified
 299              		.thumb
 300              		.thumb_func
 301              		.fpu fpv4-sp-d16
 302              		.type	pi_regulator, %function
 303              	pi_regulator:
 304              	.LFB257:
 305              		.loc 1 14 0
 306              		.cfi_startproc
 307              		@ args = 0, pretend = 0, frame = 8
 308              		@ frame_needed = 0, uses_anonymous_args = 0
 309              	.LVL25:
 310 0000 00B5     		push	{lr}
 311              		.cfi_def_cfa_offset 4
 312              		.cfi_offset 14, -4
 313              		.loc 1 21 0
 314 0002 70EE600A 		vsub.f32	s1, s0, s1
 315              	.LVL26:
 316              		.loc 1 26 0
 317 0006 DFED227A 		vldr.32	s15, .L33
 318              		.loc 1 14 0
 319 000a 224B     		ldr	r3, .L33+4
 320              		.loc 1 26 0
 321 000c B0EEE07A 		vabs.f32	s14, s1
 322              		.loc 1 14 0
 323 0010 83B0     		sub	sp, sp, #12
 324              		.cfi_def_cfa_offset 16
 325              		.loc 1 26 0
 326 0012 B4EEE77A 		vcmpe.f32	s14, s15
 327              		.loc 1 14 0
 328 0016 1A68     		ldr	r2, [r3]
 329 0018 0192     		str	r2, [sp, #4]
 330              	.LVL27:
 331              		.loc 1 26 0
 332 001a F1EE10FA 		vmrs	APSR_nzcv, FPSCR
 333 001e 2BD4     		bmi	.L27
 334              		.loc 1 30 0
 335 0020 1D4A     		ldr	r2, .L33+8
 336              		.loc 1 33 0
 337 0022 9FED1E7A 		vldr.32	s14, .L33+12
 338              		.loc 1 30 0
 339 0026 D2ED007A 		vldr.32	s15, [r2]
 340 002a 70EEA77A 		vadd.f32	s15, s1, s15
 341              		.loc 1 33 0
 342 002e F4EEC77A 		vcmpe.f32	s15, s14
ARM GAS  C:\Users\ELIOOV~1\AppData\Local\Temp\ccRudcoA.s 			page 7


 343 0032 F1EE10FA 		vmrs	APSR_nzcv, FPSCR
 344 0036 13DD     		ble	.L29
 345 0038 DFED197A 		vldr.32	s15, .L33+16
 346              		.loc 1 34 0
 347 003c 82ED007A 		vstr.32	s14, [r2]
 348              	.L24:
 349              	.LVL28:
 350              		.loc 1 39 0
 351 0040 9FED187A 		vldr.32	s14, .L33+20
 352 0044 E0EE877A 		vfma.f32	s15, s1, s14
 353              	.LVL29:
 354              		.loc 1 41 0
 355 0048 FDEEE77A 		vcvt.s32.f32	s15, s15
 356              	.LVL30:
 357 004c 17EE902A 		vmov	r2, s15	@ int
 358 0050 10B2     		sxth	r0, r2
 359              	.L21:
 360              		.loc 1 42 0
 361 0052 019A     		ldr	r2, [sp, #4]
 362 0054 1B68     		ldr	r3, [r3]
 363 0056 9A42     		cmp	r2, r3
 364 0058 17D1     		bne	.L31
 365 005a 03B0     		add	sp, sp, #12
 366              		.cfi_remember_state
 367              		.cfi_def_cfa_offset 4
 368              		@ sp needed
 369 005c 5DF804FB 		ldr	pc, [sp], #4
 370              	.LVL31:
 371              	.L29:
 372              		.cfi_restore_state
 373              		.loc 1 35 0
 374 0060 9FED117A 		vldr.32	s14, .L33+24
 375 0064 F4EEC77A 		vcmpe.f32	s15, s14
 376 0068 F1EE10FA 		vmrs	APSR_nzcv, FPSCR
 377 006c 06D5     		bpl	.L32
 378              		.loc 1 36 0
 379 006e DFED0F7A 		vldr.32	s15, .L33+28
 380 0072 82ED007A 		vstr.32	s14, [r2]
 381 0076 E3E7     		b	.L24
 382              	.L27:
 383              		.loc 1 27 0
 384 0078 0020     		movs	r0, #0
 385 007a EAE7     		b	.L21
 386              	.L32:
 387 007c B0EE0C7A 		vmov.f32	s14, #3.5e+0
 388              		.loc 1 30 0
 389 0080 C2ED007A 		vstr.32	s15, [r2]
 390 0084 67EE877A 		vmul.f32	s15, s15, s14
 391 0088 DAE7     		b	.L24
 392              	.LVL32:
 393              	.L31:
 394              		.loc 1 42 0
 395 008a FFF7FEFF 		bl	__stack_chk_fail
 396              	.LVL33:
 397              	.L34:
 398 008e 00BF     		.align	2
 399              	.L33:
ARM GAS  C:\Users\ELIOOV~1\AppData\Local\Temp\ccRudcoA.s 			page 8


 400 0090 CDCCCC3D 		.word	1036831949
 401 0094 00000000 		.word	__stack_chk_guard
 402 0098 00000000 		.word	.LANCHOR2
 403 009c 92249D43 		.word	1134371986
 404 00a0 00808944 		.word	1149861888
 405 00a4 00004844 		.word	1145569280
 406 00a8 92249DC3 		.word	-1013111662
 407 00ac 008089C4 		.word	-997621760
 408              		.cfi_endproc
 409              	.LFE257:
 410              		.size	pi_regulator, .-pi_regulator
 411              		.section	.text.pi_regulator_start,"ax",%progbits
 412              		.align	1
 413              		.p2align 4,,15
 414              		.global	pi_regulator_start
 415              		.syntax unified
 416              		.thumb
 417              		.thumb_func
 418              		.fpu fpv4-sp-d16
 419              		.type	pi_regulator_start, %function
 420              	pi_regulator_start:
 421              	.LFB259:
 422              		.loc 1 78 0
 423              		.cfi_startproc
 424              		@ args = 0, pretend = 0, frame = 8
 425              		@ frame_needed = 0, uses_anonymous_args = 0
 426 0000 10B5     		push	{r4, lr}
 427              		.cfi_def_cfa_offset 8
 428              		.cfi_offset 4, -8
 429              		.cfi_offset 14, -4
 430 0002 0A4C     		ldr	r4, .L39
 431              		.loc 1 79 0
 432 0004 0A4B     		ldr	r3, .L39+4
 433              		.loc 1 78 0
 434 0006 2268     		ldr	r2, [r4]
 435              		.loc 1 79 0
 436 0008 0A48     		ldr	r0, .L39+8
 437              		.loc 1 78 0
 438 000a 84B0     		sub	sp, sp, #16
 439              		.cfi_def_cfa_offset 24
 440              		.loc 1 79 0
 441 000c 4FF41E71 		mov	r1, #632
 442              		.loc 1 78 0
 443 0010 0392     		str	r2, [sp, #12]
 444              		.loc 1 79 0
 445 0012 0022     		movs	r2, #0
 446 0014 0092     		str	r2, [sp]
 447 0016 4022     		movs	r2, #64
 448 0018 FFF7FEFF 		bl	chThdCreateStatic
 449              	.LVL34:
 450              		.loc 1 80 0
 451 001c 039A     		ldr	r2, [sp, #12]
 452 001e 2368     		ldr	r3, [r4]
 453 0020 9A42     		cmp	r2, r3
 454 0022 01D1     		bne	.L38
 455 0024 04B0     		add	sp, sp, #16
 456              		.cfi_remember_state
ARM GAS  C:\Users\ELIOOV~1\AppData\Local\Temp\ccRudcoA.s 			page 9


 457              		.cfi_def_cfa_offset 8
 458              		@ sp needed
 459 0026 10BD     		pop	{r4, pc}
 460              	.L38:
 461              		.cfi_restore_state
 462 0028 FFF7FEFF 		bl	__stack_chk_fail
 463              	.LVL35:
 464              	.L40:
 465              		.align	2
 466              	.L39:
 467 002c 00000000 		.word	__stack_chk_guard
 468 0030 00000000 		.word	PiRegulator
 469 0034 00000000 		.word	.LANCHOR3
 470              		.cfi_endproc
 471              	.LFE259:
 472              		.size	pi_regulator_start, .-pi_regulator_start
 473              		.section	.bss.sum_error.11846,"aw",%nobits
 474              		.align	2
 475              		.set	.LANCHOR2,. + 0
 476              		.type	sum_error.11846, %object
 477              		.size	sum_error.11846, 4
 478              	sum_error.11846:
 479 0000 00000000 		.space	4
 480              		.section	.bss.waPiRegulator,"aw",%nobits
 481              		.align	3
 482              		.set	.LANCHOR3,. + 0
 483              		.type	waPiRegulator, %object
 484              		.size	waPiRegulator, 632
 485              	waPiRegulator:
 486 0000 00000000 		.space	632
 486      00000000 
 486      00000000 
 486      00000000 
 486      00000000 
 487              		.section	.rodata.__FUNCTION__.11851,"a",%progbits
 488              		.align	2
 489              		.set	.LANCHOR0,. + 0
 490              		.type	__FUNCTION__.11851, %object
 491              		.size	__FUNCTION__.11851, 12
 492              	__FUNCTION__.11851:
 493 0000 50695265 		.ascii	"PiRegulator\000"
 493      67756C61 
 493      746F7200 
 494              		.section	.rodata.__func__.7153,"a",%progbits
 495              		.align	2
 496              		.set	.LANCHOR1,. + 0
 497              		.type	__func__.7153, %object
 498              		.size	__func__.7153, 12
 499              	__func__.7153:
 500 0000 63685379 		.ascii	"chSysUnlock\000"
 500      73556E6C 
 500      6F636B00 
 501              		.text
 502              	.Letext0:
 503              		.file 6 "c:\\eclipse_e-puck2\\tools\\gcc-arm-none-eabi-7-2017-q4-major-win32\\lib\\gcc\\arm-none-e
 504              		.file 7 "c:\\eclipse_e-puck2\\tools\\gcc-arm-none-eabi-7-2017-q4-major-win32\\arm-none-eabi\\inclu
 505              		.file 8 "c:\\eclipse_e-puck2\\tools\\gcc-arm-none-eabi-7-2017-q4-major-win32\\arm-none-eabi\\inclu
ARM GAS  C:\Users\ELIOOV~1\AppData\Local\Temp\ccRudcoA.s 			page 10


 506              		.file 9 "../../lib/e-puck2_main-processor/ChibiOS//os/rt/ports/ARMCMx/compilers/GCC/chtypes.h"
 507              		.file 10 "../../lib/e-puck2_main-processor/ChibiOS//os/rt/include/chsystypes.h"
 508              		.file 11 "../../lib/e-puck2_main-processor/ChibiOS//os/rt/include/chschd.h"
 509              		.file 12 "../../lib/e-puck2_main-processor/ChibiOS//os/ext/CMSIS/include/core_cm4.h"
 510              		.file 13 "../../lib/e-puck2_main-processor/ChibiOS//os/ext/CMSIS/ST/system_stm32f4xx.h"
 511              		.file 14 "../../lib/e-puck2_main-processor/ChibiOS//os/ext/CMSIS/ST/stm32f407xx.h"
 512              		.file 15 "../../lib/e-puck2_main-processor/ChibiOS//os/rt/ports/ARMCMx/chcore.h"
 513              		.file 16 "../../lib/e-puck2_main-processor/ChibiOS//os/rt/ports/ARMCMx/chcore_v7m.h"
 514              		.file 17 "../../lib/e-puck2_main-processor/ChibiOS//os/rt/include/chdebug.h"
 515              		.file 18 "../../lib/e-puck2_main-processor/ChibiOS//os/rt/include/chtm.h"
 516              		.file 19 "../../lib/e-puck2_main-processor/ChibiOS//os/rt/include/chstats.h"
 517              		.file 20 "../../lib/e-puck2_main-processor/ChibiOS//os/rt/include/chsem.h"
 518              		.file 21 "../../lib/e-puck2_main-processor/ChibiOS//os/rt/include/chmtx.h"
 519              		.file 22 "../../lib/e-puck2_main-processor/ChibiOS//os/rt/include/chevents.h"
 520              		.file 23 "../../lib/e-puck2_main-processor/ChibiOS//os/rt/include/chqueues.h"
 521              		.file 24 "../../lib/e-puck2_main-processor/ChibiOS//os/hal/ports/STM32/STM32F4xx/stm32_dma.h"
 522              		.file 25 "../../lib/e-puck2_main-processor/ChibiOS//os/hal/include/hal_ioblock.h"
 523              		.file 26 "../../lib/e-puck2_main-processor/ChibiOS//os/hal/ports/STM32/LLD/GPIOv2/pal_lld.h"
 524              		.file 27 "../../lib/e-puck2_main-processor/ChibiOS//os/hal/include/adc.h"
 525              		.file 28 "../../lib/e-puck2_main-processor/ChibiOS//os/hal/ports/STM32/STM32F4xx/adc_lld.h"
 526              		.file 29 "../../lib/e-puck2_main-processor/ChibiOS//os/hal/include/can.h"
 527              		.file 30 "../../lib/e-puck2_main-processor/ChibiOS//os/hal/ports/STM32/LLD/can_lld.h"
 528              		.file 31 "../../lib/e-puck2_main-processor/ChibiOS//os/hal/include/dac.h"
 529              		.file 32 "../../lib/e-puck2_main-processor/ChibiOS//os/hal/ports/STM32/LLD/DACv1/dac_lld.h"
 530              		.file 33 "../../lib/e-puck2_main-processor/ChibiOS//os/hal/include/ext.h"
 531              		.file 34 "../../lib/e-puck2_main-processor/ChibiOS//os/hal/ports/STM32/LLD/ext_lld.h"
 532              		.file 35 "../../lib/e-puck2_main-processor/ChibiOS//os/hal/include/gpt.h"
 533              		.file 36 "../../lib/e-puck2_main-processor/ChibiOS//os/hal/ports/STM32/LLD/TIMv1/gpt_lld.h"
 534              		.file 37 "../../lib/e-puck2_main-processor/ChibiOS//os/hal/ports/STM32/LLD/TIMv1/stm32_tim.h"
 535              		.file 38 "../../lib/e-puck2_main-processor/ChibiOS//os/hal/include/i2c.h"
 536              		.file 39 "../../lib/e-puck2_main-processor/ChibiOS//os/hal/ports/STM32/LLD/I2Cv1/i2c_lld.h"
 537              		.file 40 "../../lib/e-puck2_main-processor/ChibiOS//os/hal/include/i2s.h"
 538              		.file 41 "../../lib/e-puck2_main-processor/ChibiOS//os/hal/ports/STM32/LLD/SPIv1/i2s_lld.h"
 539              		.file 42 "../../lib/e-puck2_main-processor/ChibiOS//os/hal/include/pwm.h"
 540              		.file 43 "../../lib/e-puck2_main-processor/ChibiOS//os/hal/ports/STM32/LLD/TIMv1/pwm_lld.h"
 541              		.file 44 "../../lib/e-puck2_main-processor/ChibiOS//os/hal/include/serial.h"
 542              		.file 45 "../../lib/e-puck2_main-processor/ChibiOS//os/hal/ports/STM32/LLD/USARTv1/serial_lld.h"
 543              		.file 46 "../../lib/e-puck2_main-processor/ChibiOS//os/hal/include/sdc.h"
 544              		.file 47 "../../lib/e-puck2_main-processor/ChibiOS//os/hal/ports/STM32/LLD/sdc_lld.h"
 545              		.file 48 "../../lib/e-puck2_main-processor/ChibiOS//os/hal/include/spi.h"
 546              		.file 49 "../../lib/e-puck2_main-processor/ChibiOS//os/hal/ports/STM32/LLD/SPIv1/spi_lld.h"
 547              		.file 50 "../../lib/e-puck2_main-processor/ChibiOS//os/hal/include/usb.h"
 548              		.file 51 "../../lib/e-puck2_main-processor/ChibiOS//os/hal/ports/STM32/LLD/OTGv1/usb_lld.h"
 549              		.file 52 "../../lib/e-puck2_main-processor/ChibiOS//os/hal/ports/STM32/LLD/OTGv1/stm32_otg.h"
 550              		.file 53 "../../lib/e-puck2_main-processor/ChibiOS//os/hal/include/serial_usb.h"
 551              		.file 54 "c:\\eclipse_e-puck2\\tools\\gcc-arm-none-eabi-7-2017-q4-major-win32\\arm-none-eabi\\incl
 552              		.file 55 "c:\\eclipse_e-puck2\\tools\\gcc-arm-none-eabi-7-2017-q4-major-win32\\arm-none-eabi\\incl
 553              		.file 56 "c:\\eclipse_e-puck2\\tools\\gcc-arm-none-eabi-7-2017-q4-major-win32\\arm-none-eabi\\incl
 554              		.file 57 "c:\\eclipse_e-puck2\\tools\\gcc-arm-none-eabi-7-2017-q4-major-win32\\arm-none-eabi\\incl
 555              		.file 58 "../../lib/e-puck2_main-processor/src/usbcfg.h"
 556              		.file 59 "../../lib/e-puck2_main-processor/ChibiOS_ext/os/hal/include/../ports/STM32/STM32F4xx/dcm
 557              		.file 60 "c:\\eclipse_e-puck2\\tools\\gcc-arm-none-eabi-7-2017-q4-major-win32\\arm-none-eabi\\incl
 558              		.file 61 "../../lib/e-puck2_main-processor/src/msgbus/messagebus.h"
 559              		.file 62 "c:\\eclipse_e-puck2\\tools\\gcc-arm-none-eabi-7-2017-q4-major-win32\\arm-none-eabi\\incl
 560              		.file 63 "../../lib/e-puck2_main-processor/src/parameter/parameter.h"
 561              		.file 64 "./main.h"
 562              		.file 65 "../../lib/e-puck2_main-processor/ChibiOS//os/rt/include/chthreads.h"
ARM GAS  C:\Users\ELIOOV~1\AppData\Local\Temp\ccRudcoA.s 			page 11


 563              		.file 66 "../../lib/e-puck2_main-processor/src/motors.h"