ARM GAS  C:\Users\maria\AppData\Local\Temp\ccQUGkbC.s 			page 1


   1              		.cpu cortex-m4
   2              		.eabi_attribute 27, 1
   3              		.eabi_attribute 28, 1
   4              		.eabi_attribute 20, 1
   5              		.eabi_attribute 21, 1
   6              		.eabi_attribute 23, 3
   7              		.eabi_attribute 24, 1
   8              		.eabi_attribute 25, 1
   9              		.eabi_attribute 26, 1
  10              		.eabi_attribute 30, 2
  11              		.eabi_attribute 34, 1
  12              		.eabi_attribute 18, 4
  13              		.file	"process_image.c"
  14              		.text
  15              	.Ltext0:
  16              		.cfi_sections	.debug_frame
  17              		.section	.text.CaptureImage,"ax",%progbits
  18              		.align	1
  19              		.p2align 4,,15
  20              		.syntax unified
  21              		.thumb
  22              		.thumb_func
  23              		.fpu fpv4-sp-d16
  24              		.type	CaptureImage, %function
  25              	CaptureImage:
  26              	.LFB257:
  27              		.file 1 "process_image.c"
  28              		.loc 1 17 0
  29              		.cfi_startproc
  30              		@ Volatile: function does not return.
  31              		@ args = 0, pretend = 0, frame = 8
  32              		@ frame_needed = 0, uses_anonymous_args = 0
  33              	.LVL0:
  34 0000 80B5     		push	{r7, lr}
  35              		.cfi_def_cfa_offset 8
  36              		.cfi_offset 7, -8
  37              		.cfi_offset 14, -4
  38              	.LBB56:
  39              	.LBB57:
  40              		.file 2 "../../lib/e-puck2_main-processor/ChibiOS//os/rt/include/chregistry.h"
  41              		.loc 2 135 0
  42 0002 234C     		ldr	r4, .L8
  43              	.LBE57:
  44              	.LBE56:
  45              		.loc 1 17 0
  46 0004 234A     		ldr	r2, .L8+4
  47              	.LBB60:
  48              	.LBB58:
  49              		.loc 2 135 0
  50 0006 A369     		ldr	r3, [r4, #24]
  51 0008 2349     		ldr	r1, .L8+8
  52              	.LBE58:
  53              	.LBE60:
  54              		.loc 1 17 0
  55 000a 1668     		ldr	r6, [r2]
  56              	.LBB61:
  57              	.LBB59:
ARM GAS  C:\Users\maria\AppData\Local\Temp\ccQUGkbC.s 			page 2


  58              		.loc 2 135 0
  59 000c 9961     		str	r1, [r3, #24]
  60              	.LBE59:
  61              	.LBE61:
  62              		.loc 1 17 0
  63 000e 86B0     		sub	sp, sp, #24
  64              		.cfi_def_cfa_offset 32
  65              		.loc 1 23 0
  66 0010 0223     		movs	r3, #2
  67 0012 2025     		movs	r5, #32
  68 0014 0A22     		movs	r2, #10
  69 0016 0021     		movs	r1, #0
  70 0018 0093     		str	r3, [sp]
  71              		.loc 1 17 0
  72 001a 0596     		str	r6, [sp, #20]
  73              		.loc 1 23 0
  74 001c 4FF42073 		mov	r3, #640
  75 0020 CDE90155 		strd	r5, r5, [sp, #4]
  76 0024 3020     		movs	r0, #48
  77              	.LVL1:
  78 0026 1D4E     		ldr	r6, .L8+12
  79              	.LBB62:
  80              	.LBB63:
  81              	.LBB64:
  82              	.LBB65:
  83              		.file 3 "../../lib/e-puck2_main-processor/ChibiOS//os/rt/include/chsys.h"
  84              		.loc 3 367 0
  85 0028 1D4F     		ldr	r7, .L8+16
  86              	.LBE65:
  87              	.LBE64:
  88              	.LBE63:
  89              	.LBE62:
  90              		.loc 1 23 0
  91 002a FFF7FEFF 		bl	po8030_advanced_config
  92              	.LVL2:
  93              		.loc 1 24 0
  94 002e FFF7FEFF 		bl	dcmi_enable_double_buffering
  95              	.LVL3:
  96              		.loc 1 25 0
  97 0032 0020     		movs	r0, #0
  98 0034 FFF7FEFF 		bl	dcmi_set_capture_mode
  99              	.LVL4:
 100              	.LBB83:
 101              	.LBB80:
 102              	.LBB70:
 103              	.LBB71:
 104              		.file 4 "../../lib/e-puck2_main-processor/ChibiOS//os/rt/include/chbsem.h"
 105              		.loc 4 271 0
 106 0038 B046     		mov	r8, r6
 107              	.LBE71:
 108              	.LBE70:
 109              	.LBE80:
 110              	.LBE83:
 111              		.loc 1 26 0
 112 003a FFF7FEFF 		bl	dcmi_prepare
 113              	.LVL5:
 114 003e 13E0     		b	.L4
ARM GAS  C:\Users\maria\AppData\Local\Temp\ccQUGkbC.s 			page 3


 115              	.LVL6:
 116              	.L2:
 117              	.LBB84:
 118              	.LBB81:
 119              		.loc 4 286 0
 120 0040 FFF7FEFF 		bl	chSchRescheduleS
 121              	.LVL7:
 122              	.LBB73:
 123              	.LBB69:
 124              		.loc 3 360 0
 125 0044 FFF7FEFF 		bl	_dbg_check_unlock
 126              	.LVL8:
 127              		.loc 3 361 0
 128 0048 FFF7FEFF 		bl	_stats_stop_measure_crit_thd
 129              	.LVL9:
 130              		.loc 3 367 0
 131 004c 2368     		ldr	r3, [r4]
 132 004e A342     		cmp	r3, r4
 133 0050 07D0     		beq	.L3
 134 0052 A269     		ldr	r2, [r4, #24]
 135 0054 9B68     		ldr	r3, [r3, #8]
 136 0056 9268     		ldr	r2, [r2, #8]
 137 0058 9A42     		cmp	r2, r3
 138 005a 02D2     		bcs	.L3
 139 005c 3846     		mov	r0, r7
 140 005e FFF7FEFF 		bl	chSysHalt
 141              	.LVL10:
 142              	.L3:
 143              	.LBB66:
 144              	.LBB67:
 145              	.LBB68:
 146              		.file 5 "../../lib/e-puck2_main-processor/ChibiOS//os/ext/CMSIS/include/core_cmFunc.h"
 147              		.loc 5 546 0
 148 0062 0023     		movs	r3, #0
 149              		.syntax unified
 150              	@ 546 "../../lib/e-puck2_main-processor/ChibiOS//os/ext/CMSIS/include/core_cmFunc.h" 1
 151 0064 83F31188 		MSR basepri, r3
 152              	@ 0 "" 2
 153              	.LVL11:
 154              		.thumb
 155              		.syntax unified
 156              	.L4:
 157              	.LBE68:
 158              	.LBE67:
 159              	.LBE66:
 160              	.LBE69:
 161              	.LBE73:
 162              	.LBE81:
 163              	.LBE84:
 164              		.loc 1 30 0 discriminator 1
 165 0068 FFF7FEFF 		bl	dcmi_capture_start
 166              	.LVL12:
 167              		.loc 1 32 0 discriminator 1
 168 006c FFF7FEFF 		bl	wait_image_ready
 169              	.LVL13:
 170              	.LBB85:
 171              	.LBB82:
ARM GAS  C:\Users\maria\AppData\Local\Temp\ccQUGkbC.s 			page 4


 172              	.LBB74:
 173              	.LBB75:
 174              	.LBB76:
 175              	.LBB77:
 176              	.LBB78:
 177              		.loc 5 546 0 discriminator 1
 178              		.syntax unified
 179              	@ 546 "../../lib/e-puck2_main-processor/ChibiOS//os/ext/CMSIS/include/core_cmFunc.h" 1
 180 0070 85F31188 		MSR basepri, r5
 181              	@ 0 "" 2
 182              	.LVL14:
 183              		.thumb
 184              		.syntax unified
 185              	.LBE78:
 186              	.LBE77:
 187              	.LBE76:
 188              		.loc 3 349 0 discriminator 1
 189 0074 FFF7FEFF 		bl	_stats_start_measure_crit_thd
 190              	.LVL15:
 191              		.loc 3 350 0 discriminator 1
 192 0078 FFF7FEFF 		bl	_dbg_check_lock
 193              	.LVL16:
 194              	.LBE75:
 195              	.LBE74:
 196              	.LBB79:
 197              	.LBB72:
 198              		.loc 4 268 0 discriminator 1
 199 007c FFF7FEFF 		bl	chDbgCheckClassI
 200              	.LVL17:
 201              		.loc 4 270 0 discriminator 1
 202 0080 B368     		ldr	r3, [r6, #8]
 203 0082 002B     		cmp	r3, #0
 204 0084 DCDC     		bgt	.L2
 205              		.loc 4 271 0
 206 0086 4046     		mov	r0, r8
 207 0088 FFF7FEFF 		bl	chSemSignalI
 208              	.LVL18:
 209 008c D8E7     		b	.L2
 210              	.L9:
 211 008e 00BF     		.align	2
 212              	.L8:
 213 0090 00000000 		.word	ch
 214 0094 00000000 		.word	__stack_chk_guard
 215 0098 00000000 		.word	.LANCHOR0
 216 009c 00000000 		.word	.LANCHOR1
 217 00a0 00000000 		.word	.LANCHOR2
 218              	.LBE72:
 219              	.LBE79:
 220              	.LBE82:
 221              	.LBE85:
 222              		.cfi_endproc
 223              	.LFE257:
 224              		.size	CaptureImage, .-CaptureImage
 225              		.section	.text.rgb_to_hsv,"ax",%progbits
 226              		.align	1
 227              		.p2align 4,,15
 228              		.global	rgb_to_hsv
ARM GAS  C:\Users\maria\AppData\Local\Temp\ccQUGkbC.s 			page 5


 229              		.syntax unified
 230              		.thumb
 231              		.thumb_func
 232              		.fpu fpv4-sp-d16
 233              		.type	rgb_to_hsv, %function
 234              	rgb_to_hsv:
 235              	.LFB259:
 236              		.loc 1 81 0
 237              		.cfi_startproc
 238              		@ args = 0, pretend = 0, frame = 8
 239              		@ frame_needed = 0, uses_anonymous_args = 0
 240              	.LVL19:
 241 0000 30B5     		push	{r4, r5, lr}
 242              		.cfi_def_cfa_offset 12
 243              		.cfi_offset 4, -12
 244              		.cfi_offset 5, -8
 245              		.cfi_offset 14, -4
 246 0002 534D     		ldr	r5, .L34
 247 0004 83B0     		sub	sp, sp, #12
 248              		.cfi_def_cfa_offset 24
 249              		.loc 1 81 0
 250 0006 2B68     		ldr	r3, [r5]
 251 0008 0193     		str	r3, [sp, #4]
 252              	.LVL20:
 253              	.LBB86:
 254              	.LBB87:
 255              		.loc 1 134 0
 256 000a 8842     		cmp	r0, r1
 257 000c 8CBF     		ite	hi
 258 000e 0346     		movhi	r3, r0
 259 0010 0B46     		movls	r3, r1
 260 0012 9342     		cmp	r3, r2
 261 0014 38BF     		it	cc
 262 0016 1346     		movcc	r3, r2
 263              	.LVL21:
 264              	.LBE87:
 265              	.LBE86:
 266              	.LBB88:
 267              	.LBB89:
 268              		.loc 1 150 0
 269 0018 8842     		cmp	r0, r1
 270              	.LBE89:
 271              	.LBE88:
 272              		.loc 1 88 0
 273 001a 8DF80130 		strb	r3, [sp, #1]
 274              	.LVL22:
 275 001e 2CBF     		ite	cs
 276 0020 0B46     		movcs	r3, r1
 277 0022 0346     		movcc	r3, r0
 278 0024 9342     		cmp	r3, r2
 279 0026 28BF     		it	cs
 280 0028 1346     		movcs	r3, r2
 281              		.loc 1 89 0
 282 002a 8DF80230 		strb	r3, [sp, #2]
 283              		.loc 1 90 0
 284 002e 9DF80140 		ldrb	r4, [sp, #1]	@ zero_extendqisi2
 285 0032 9DF80230 		ldrb	r3, [sp, #2]	@ zero_extendqisi2
ARM GAS  C:\Users\maria\AppData\Local\Temp\ccQUGkbC.s 			page 6


 286 0036 E41A     		subs	r4, r4, r3
 287 0038 E4B2     		uxtb	r4, r4
 288 003a 8DF80340 		strb	r4, [sp, #3]
 289              		.loc 1 93 0
 290 003e 9DF80140 		ldrb	r4, [sp, #1]	@ zero_extendqisi2
 291 0042 9DF80230 		ldrb	r3, [sp, #2]	@ zero_extendqisi2
 292 0046 9C42     		cmp	r4, r3
 293 0048 0BD0     		beq	.L26
 294              		.loc 1 95 0
 295 004a 9DF80130 		ldrb	r3, [sp, #1]	@ zero_extendqisi2
 296 004e 8342     		cmp	r3, r0
 297 0050 4AD0     		beq	.L29
 298              		.loc 1 97 0
 299 0052 9DF80130 		ldrb	r3, [sp, #1]	@ zero_extendqisi2
 300 0056 8B42     		cmp	r3, r1
 301 0058 6CD0     		beq	.L30
 302              		.loc 1 99 0
 303 005a 9DF80130 		ldrb	r3, [sp, #1]	@ zero_extendqisi2
 304 005e 9342     		cmp	r3, r2
 305 0060 5DD0     		beq	.L31
 306              	.L26:
 307              		.loc 1 94 0
 308 0062 0023     		movs	r3, #0
 309              	.LVL23:
 310              	.L15:
 311              		.loc 1 103 0
 312 0064 9DF80120 		ldrb	r2, [sp, #1]	@ zero_extendqisi2
 313 0068 A2B9     		cbnz	r2, .L18
 314              		.loc 1 113 0
 315 006a 9DF80130 		ldrb	r3, [sp, #1]	@ zero_extendqisi2
 316              	.LVL24:
 317 006e 03EB8303 		add	r3, r3, r3, lsl #2
 318 0072 03EB8303 		add	r3, r3, r3, lsl #2
 319 0076 9B00     		lsls	r3, r3, #2
 320 0078 B3F57F6F 		cmp	r3, #4080
 321 007c 30DA     		bge	.L19
 322              	.LVL25:
 323              	.L20:
 324              		.loc 1 125 0
 325 007e 354B     		ldr	r3, .L34+4
 326 0080 0520     		movs	r0, #5
 327 0082 1870     		strb	r0, [r3]
 328              	.L22:
 329              		.loc 1 130 0
 330 0084 019A     		ldr	r2, [sp, #4]
 331 0086 2B68     		ldr	r3, [r5]
 332              		.loc 1 127 0
 333 0088 3349     		ldr	r1, .L34+8
 334              		.loc 1 130 0
 335 008a 9A42     		cmp	r2, r3
 336              		.loc 1 127 0
 337 008c 0870     		strb	r0, [r1]
 338              		.loc 1 130 0
 339 008e 5CD1     		bne	.L32
 340 0090 03B0     		add	sp, sp, #12
 341              		.cfi_remember_state
 342              		.cfi_def_cfa_offset 12
ARM GAS  C:\Users\maria\AppData\Local\Temp\ccQUGkbC.s 			page 7


 343              		@ sp needed
 344 0092 30BD     		pop	{r4, r5, pc}
 345              	.LVL26:
 346              	.L18:
 347              		.cfi_restore_state
 348              		.loc 1 106 0
 349 0094 9DF80310 		ldrb	r1, [sp, #3]	@ zero_extendqisi2
 350 0098 9DF80100 		ldrb	r0, [sp, #1]	@ zero_extendqisi2
 351              	.LVL27:
 352              		.loc 1 113 0
 353 009c 9DF80120 		ldrb	r2, [sp, #1]	@ zero_extendqisi2
 354 00a0 02EB8202 		add	r2, r2, r2, lsl #2
 355 00a4 02EB8202 		add	r2, r2, r2, lsl #2
 356 00a8 9200     		lsls	r2, r2, #2
 357 00aa B2F57F6F 		cmp	r2, #4080
 358              		.loc 1 106 0
 359 00ae C9B2     		uxtb	r1, r1
 360 00b0 C0B2     		uxtb	r0, r0
 361              	.LVL28:
 362              		.loc 1 113 0
 363 00b2 E4DB     		blt	.L20
 364              		.loc 1 106 0
 365 00b4 01EB8101 		add	r1, r1, r1, lsl #2
 366              	.LVL29:
 367 00b8 01EB8101 		add	r1, r1, r1, lsl #2
 368 00bc 8A00     		lsls	r2, r1, #2
 369 00be 92FBF0F2 		sdiv	r2, r2, r0
 370              		.loc 1 114 0
 371 00c2 D2B2     		uxtb	r2, r2
 372 00c4 0F2A     		cmp	r2, #15
 373 00c6 0BD9     		bls	.L19
 374              		.loc 1 117 0
 375 00c8 A3F13302 		sub	r2, r3, #51
 376 00cc D2B2     		uxtb	r2, r2
 377 00ce 942A     		cmp	r2, #148
 378 00d0 21D9     		bls	.L33
 379              		.loc 1 119 0
 380 00d2 C82B     		cmp	r3, #200
 381              		.loc 1 120 0
 382 00d4 1F4B     		ldr	r3, .L34+4
 383              	.LVL30:
 384 00d6 8CBF     		ite	hi
 385 00d8 0220     		movhi	r0, #2
 386              		.loc 1 121 0
 387 00da 0320     		movls	r0, #3
 388 00dc 1870     		strb	r0, [r3]
 389 00de D1E7     		b	.L22
 390              	.L19:
 391              		.loc 1 123 0
 392 00e0 1C4B     		ldr	r3, .L34+4
 393 00e2 0420     		movs	r0, #4
 394 00e4 1870     		strb	r0, [r3]
 395 00e6 CDE7     		b	.L22
 396              	.LVL31:
 397              	.L29:
 398              		.loc 1 96 0
 399 00e8 9DF80330 		ldrb	r3, [sp, #3]	@ zero_extendqisi2
ARM GAS  C:\Users\maria\AppData\Local\Temp\ccQUGkbC.s 			page 8


 400 00ec 8A1A     		subs	r2, r1, r2
 401              	.LVL32:
 402 00ee 92FBF3F2 		sdiv	r2, r2, r3
 403 00f2 C2EB0212 		rsb	r2, r2, r2, lsl #4
 404 00f6 9300     		lsls	r3, r2, #2
 405 00f8 184A     		ldr	r2, .L34+12
 406 00fa 03F5B473 		add	r3, r3, #360
 407              	.LVL33:
 408              	.L28:
 409              		.loc 1 100 0
 410 00fe 82FB0312 		smull	r1, r2, r2, r3
 411 0102 D118     		adds	r1, r2, r3
 412 0104 DA17     		asrs	r2, r3, #31
 413 0106 C2EB2122 		rsb	r2, r2, r1, asr #8
 414 010a 4FF4B471 		mov	r1, #360
 415 010e 01FB1233 		mls	r3, r1, r2, r3
 416 0112 DBB2     		uxtb	r3, r3
 417              	.LVL34:
 418 0114 A6E7     		b	.L15
 419              	.LVL35:
 420              	.L33:
 421              		.loc 1 118 0
 422 0116 0F4B     		ldr	r3, .L34+4
 423              	.LVL36:
 424 0118 0120     		movs	r0, #1
 425 011a 1870     		strb	r0, [r3]
 426 011c B2E7     		b	.L22
 427              	.LVL37:
 428              	.L31:
 429              		.loc 1 100 0
 430 011e 431A     		subs	r3, r0, r1
 431 0120 9DF80310 		ldrb	r1, [sp, #3]	@ zero_extendqisi2
 432              	.LVL38:
 433 0124 93FBF1F3 		sdiv	r3, r3, r1
 434 0128 C3EB0313 		rsb	r3, r3, r3, lsl #4
 435 012c 9B00     		lsls	r3, r3, #2
 436 012e 0B4A     		ldr	r2, .L34+12
 437              	.LVL39:
 438 0130 F033     		adds	r3, r3, #240
 439 0132 E4E7     		b	.L28
 440              	.LVL40:
 441              	.L30:
 442              		.loc 1 98 0
 443 0134 9DF80330 		ldrb	r3, [sp, #3]	@ zero_extendqisi2
 444 0138 121A     		subs	r2, r2, r0
 445              	.LVL41:
 446 013a 92FBF3F2 		sdiv	r2, r2, r3
 447 013e C2EB0212 		rsb	r2, r2, r2, lsl #4
 448 0142 9300     		lsls	r3, r2, #2
 449 0144 7833     		adds	r3, r3, #120
 450 0146 054A     		ldr	r2, .L34+12
 451 0148 D9E7     		b	.L28
 452              	.LVL42:
 453              	.L32:
 454              		.loc 1 130 0
 455 014a FFF7FEFF 		bl	__stack_chk_fail
 456              	.LVL43:
ARM GAS  C:\Users\maria\AppData\Local\Temp\ccQUGkbC.s 			page 9


 457              	.L35:
 458 014e 00BF     		.align	2
 459              	.L34:
 460 0150 00000000 		.word	__stack_chk_guard
 461 0154 00000000 		.word	.LANCHOR3
 462 0158 00000000 		.word	.LANCHOR4
 463 015c B7600BB6 		.word	-1240768329
 464              		.cfi_endproc
 465              	.LFE259:
 466              		.size	rgb_to_hsv, .-rgb_to_hsv
 467              		.section	.text.ProcessImage,"ax",%progbits
 468              		.align	1
 469              		.p2align 4,,15
 470              		.syntax unified
 471              		.thumb
 472              		.thumb_func
 473              		.fpu fpv4-sp-d16
 474              		.type	ProcessImage, %function
 475              	ProcessImage:
 476              	.LFB258:
 477              		.loc 1 39 0
 478              		.cfi_startproc
 479              		@ args = 0, pretend = 0, frame = 8
 480              		@ frame_needed = 0, uses_anonymous_args = 0
 481              	.LVL44:
 482 0000 2DE9F04F 		push	{r4, r5, r6, r7, r8, r9, r10, fp, lr}
 483              		.cfi_def_cfa_offset 36
 484              		.cfi_offset 4, -36
 485              		.cfi_offset 5, -32
 486              		.cfi_offset 6, -28
 487              		.cfi_offset 7, -24
 488              		.cfi_offset 8, -20
 489              		.cfi_offset 9, -16
 490              		.cfi_offset 10, -12
 491              		.cfi_offset 11, -8
 492              		.cfi_offset 14, -4
 493              	.LBB90:
 494              	.LBB91:
 495              		.loc 2 135 0
 496 0004 334A     		ldr	r2, .L49
 497              	.LBE91:
 498              	.LBE90:
 499              		.loc 1 39 0
 500 0006 344B     		ldr	r3, .L49+4
 501              	.LBB94:
 502              	.LBB92:
 503              		.loc 2 135 0
 504 0008 9269     		ldr	r2, [r2, #24]
 505 000a 3449     		ldr	r1, .L49+8
 506              	.LBE92:
 507              	.LBE94:
 508              		.loc 1 39 0
 509 000c 1B68     		ldr	r3, [r3]
 510 000e DFF8E480 		ldr	r8, .L49+32
 511              	.LBB95:
 512              		.loc 1 66 0
 513 0012 DFF8E490 		ldr	r9, .L49+36
ARM GAS  C:\Users\maria\AppData\Local\Temp\ccQUGkbC.s 			page 10


 514              	.LBE95:
 515              	.LBB96:
 516              	.LBB93:
 517              		.loc 2 135 0
 518 0016 9161     		str	r1, [r2, #24]
 519              	.LBE93:
 520              	.LBE96:
 521              		.loc 1 39 0
 522 0018 83B0     		sub	sp, sp, #12
 523              		.cfi_def_cfa_offset 48
 524              		.loc 1 39 0
 525 001a 0193     		str	r3, [sp, #4]
 526              	.LVL45:
 527              	.L42:
 528              	.LBB97:
 529              	.LBB98:
 530              		.loc 4 143 0
 531 001c 3048     		ldr	r0, .L49+12
 532 001e FFF7FEFF 		bl	chSemWait
 533              	.LVL46:
 534              	.LBE98:
 535              	.LBE97:
 536              		.loc 1 57 0
 537 0022 FFF7FEFF 		bl	dcmi_get_last_image_ptr
 538              	.LVL47:
 539 0026 0025     		movs	r5, #0
 540 0028 0138     		subs	r0, r0, #1
 541              	.LVL48:
 542 002a 08E0     		b	.L39
 543              	.LVL49:
 544              	.L48:
 545              	.LBB99:
 546              		.loc 1 62 0
 547 002c 08F80E30 		strb	r3, [r8, lr]
 548 0030 0135     		adds	r5, r5, #1
 549              		.loc 1 63 0
 550 0032 2C4B     		ldr	r3, .L49+16
 551              		.loc 1 60 0
 552 0034 B5F5A06F 		cmp	r5, #1280
 553              		.loc 1 63 0
 554 0038 03F80EB0 		strb	fp, [r3, lr]
 555              	.LVL50:
 556              		.loc 1 60 0
 557 003c 2CD0     		beq	.L47
 558              	.L39:
 559 003e 10F8014F 		ldrb	r4, [r0, #1]!	@ zero_extendqisi2
 560              		.loc 1 62 0
 561 0042 E308     		lsrs	r3, r4, #3
 562 0044 C3EB0323 		rsb	r3, r3, r3, lsl #8
 563              		.loc 1 66 0
 564 0048 04F01F02 		and	r2, r4, #31
 565 004c C2EB0222 		rsb	r2, r2, r2, lsl #8
 566              		.loc 1 62 0
 567 0050 89FB03A6 		smull	r10, r6, r9, r3
 568 0054 1FFA85FC 		uxth	ip, r5
 569              	.LVL51:
 570 0058 1E44     		add	r6, r6, r3
ARM GAS  C:\Users\maria\AppData\Local\Temp\ccQUGkbC.s 			page 11


 571              		.loc 1 66 0
 572 005a 89FB027A 		smull	r7, r10, r9, r2
 573 005e 691E     		subs	r1, r5, #1
 574              		.loc 1 62 0
 575 0060 DB17     		asrs	r3, r3, #31
 576              		.loc 1 63 0
 577 0062 4FEAC40B 		lsl	fp, r4, #3
 578              		.loc 1 61 0
 579 0066 1CF0010F 		tst	ip, #1
 580              		.loc 1 66 0
 581 006a 9244     		add	r10, r10, r2
 582              		.loc 1 62 0
 583 006c 4FEA5C0E 		lsr	lr, ip, #1
 584 0070 C3EB2613 		rsb	r3, r3, r6, asr #4
 585              		.loc 1 63 0
 586 0074 0BF0380B 		and	fp, fp, #56
 587              		.loc 1 66 0
 588 0078 4FEA6101 		asr	r1, r1, #1
 589 007c 4FEAE272 		asr	r2, r2, #31
 590              		.loc 1 61 0
 591 0080 D4D0     		beq	.L48
 592              		.loc 1 66 0
 593 0082 194B     		ldr	r3, .L49+20
 594 0084 C2EB2A12 		rsb	r2, r2, r10, asr #4
 595 0088 5A54     		strb	r2, [r3, r1]
 596 008a 0135     		adds	r5, r5, #1
 597              		.loc 1 67 0
 598 008c 174B     		ldr	r3, .L49+24
 599 008e 6409     		lsrs	r4, r4, #5
 600              		.loc 1 60 0
 601 0090 B5F5A06F 		cmp	r5, #1280
 602              		.loc 1 67 0
 603 0094 5C54     		strb	r4, [r3, r1]
 604              	.LVL52:
 605              		.loc 1 60 0
 606 0096 D2D1     		bne	.L39
 607              	.L47:
 608 0098 0124     		movs	r4, #1
 609              	.L41:
 610              	.LVL53:
 611              	.LBE99:
 612              	.LBB100:
 613              		.loc 1 74 0
 614 009a B4F59E7F 		cmp	r4, #316
 615 009e 14D3     		bcc	.L40
 616              		.loc 1 73 0
 617 00a0 124A     		ldr	r2, .L49+24
 618 00a2 104B     		ldr	r3, .L49+16
 619 00a4 115D     		ldrb	r1, [r2, r4]	@ zero_extendqisi2
 620 00a6 1B5D     		ldrb	r3, [r3, r4]	@ zero_extendqisi2
 621              		.loc 1 75 0
 622 00a8 0F4A     		ldr	r2, .L49+20
 623 00aa 18F80400 		ldrb	r0, [r8, r4]	@ zero_extendqisi2
 624 00ae 125D     		ldrb	r2, [r2, r4]	@ zero_extendqisi2
 625              		.loc 1 73 0
 626 00b0 0B43     		orrs	r3, r3, r1
 627 00b2 0F49     		ldr	r1, .L49+28
ARM GAS  C:\Users\maria\AppData\Local\Temp\ccQUGkbC.s 			page 12


 628 00b4 C3EB0323 		rsb	r3, r3, r3, lsl #8
 629 00b8 81FB0351 		smull	r5, r1, r1, r3
 630 00bc 1944     		add	r1, r1, r3
 631 00be DB17     		asrs	r3, r3, #31
 632 00c0 C3EB6111 		rsb	r1, r3, r1, asr #5
 633              		.loc 1 75 0
 634 00c4 C9B2     		uxtb	r1, r1
 635 00c6 FFF7FEFF 		bl	rgb_to_hsv
 636              	.LVL54:
 637              	.L40:
 638 00ca 0134     		adds	r4, r4, #1
 639              	.LVL55:
 640              		.loc 1 72 0 discriminator 2
 641 00cc B4F5207F 		cmp	r4, #640
 642 00d0 E3D1     		bne	.L41
 643 00d2 A3E7     		b	.L42
 644              	.L50:
 645              		.align	2
 646              	.L49:
 647 00d4 00000000 		.word	ch
 648 00d8 00000000 		.word	__stack_chk_guard
 649 00dc 00000000 		.word	.LANCHOR5
 650 00e0 00000000 		.word	.LANCHOR1
 651 00e4 00000000 		.word	.LANCHOR7
 652 00e8 00000000 		.word	.LANCHOR8
 653 00ec 00000000 		.word	.LANCHOR9
 654 00f0 83200882 		.word	-2113396605
 655 00f4 00000000 		.word	.LANCHOR6
 656 00f8 43082184 		.word	-2078209981
 657              	.LBE100:
 658              		.cfi_endproc
 659              	.LFE258:
 660              		.size	ProcessImage, .-ProcessImage
 661              		.section	.text.max_value,"ax",%progbits
 662              		.align	1
 663              		.p2align 4,,15
 664              		.global	max_value
 665              		.syntax unified
 666              		.thumb
 667              		.thumb_func
 668              		.fpu fpv4-sp-d16
 669              		.type	max_value, %function
 670              	max_value:
 671              	.LFB260:
 672              		.loc 1 132 0
 673              		.cfi_startproc
 674              		@ args = 0, pretend = 0, frame = 8
 675              		@ frame_needed = 0, uses_anonymous_args = 0
 676              	.LVL56:
 677 0000 10B5     		push	{r4, lr}
 678              		.cfi_def_cfa_offset 8
 679              		.cfi_offset 4, -8
 680              		.cfi_offset 14, -4
 681 0002 0B4B     		ldr	r3, .L57
 682 0004 82B0     		sub	sp, sp, #8
 683              		.cfi_def_cfa_offset 16
 684              		.loc 1 132 0
ARM GAS  C:\Users\maria\AppData\Local\Temp\ccQUGkbC.s 			page 13


 685 0006 1C68     		ldr	r4, [r3]
 686 0008 0194     		str	r4, [sp, #4]
 687              	.LVL57:
 688              		.loc 1 134 0
 689 000a 8842     		cmp	r0, r1
 690 000c 08D9     		bls	.L52
 691              	.LVL58:
 692 000e 9042     		cmp	r0, r2
 693 0010 38BF     		it	cc
 694 0012 1046     		movcc	r0, r2
 695              	.LVL59:
 696              	.L53:
 697              		.loc 1 146 0
 698 0014 019A     		ldr	r2, [sp, #4]
 699              	.LVL60:
 700 0016 1B68     		ldr	r3, [r3]
 701 0018 9A42     		cmp	r2, r3
 702 001a 06D1     		bne	.L56
 703 001c 02B0     		add	sp, sp, #8
 704              		.cfi_remember_state
 705              		.cfi_def_cfa_offset 8
 706              		@ sp needed
 707 001e 10BD     		pop	{r4, pc}
 708              	.LVL61:
 709              	.L52:
 710              		.cfi_restore_state
 711 0020 9142     		cmp	r1, r2
 712 0022 38BF     		it	cc
 713 0024 1146     		movcc	r1, r2
 714              	.LVL62:
 715 0026 0846     		mov	r0, r1
 716              	.LVL63:
 717 0028 F4E7     		b	.L53
 718              	.LVL64:
 719              	.L56:
 720 002a FFF7FEFF 		bl	__stack_chk_fail
 721              	.LVL65:
 722              	.L58:
 723 002e 00BF     		.align	2
 724              	.L57:
 725 0030 00000000 		.word	__stack_chk_guard
 726              		.cfi_endproc
 727              	.LFE260:
 728              		.size	max_value, .-max_value
 729              		.section	.text.min_value,"ax",%progbits
 730              		.align	1
 731              		.p2align 4,,15
 732              		.global	min_value
 733              		.syntax unified
 734              		.thumb
 735              		.thumb_func
 736              		.fpu fpv4-sp-d16
 737              		.type	min_value, %function
 738              	min_value:
 739              	.LFB261:
 740              		.loc 1 148 0
 741              		.cfi_startproc
ARM GAS  C:\Users\maria\AppData\Local\Temp\ccQUGkbC.s 			page 14


 742              		@ args = 0, pretend = 0, frame = 8
 743              		@ frame_needed = 0, uses_anonymous_args = 0
 744              	.LVL66:
 745 0000 10B5     		push	{r4, lr}
 746              		.cfi_def_cfa_offset 8
 747              		.cfi_offset 4, -8
 748              		.cfi_offset 14, -4
 749 0002 0B4B     		ldr	r3, .L65
 750 0004 82B0     		sub	sp, sp, #8
 751              		.cfi_def_cfa_offset 16
 752              		.loc 1 148 0
 753 0006 1C68     		ldr	r4, [r3]
 754 0008 0194     		str	r4, [sp, #4]
 755              	.LVL67:
 756              		.loc 1 150 0
 757 000a 8842     		cmp	r0, r1
 758 000c 08D2     		bcs	.L60
 759              	.LVL68:
 760 000e 9042     		cmp	r0, r2
 761 0010 28BF     		it	cs
 762 0012 1046     		movcs	r0, r2
 763              	.LVL69:
 764              	.L61:
 765              		.loc 1 162 0
 766 0014 019A     		ldr	r2, [sp, #4]
 767              	.LVL70:
 768 0016 1B68     		ldr	r3, [r3]
 769 0018 9A42     		cmp	r2, r3
 770 001a 06D1     		bne	.L64
 771 001c 02B0     		add	sp, sp, #8
 772              		.cfi_remember_state
 773              		.cfi_def_cfa_offset 8
 774              		@ sp needed
 775 001e 10BD     		pop	{r4, pc}
 776              	.LVL71:
 777              	.L60:
 778              		.cfi_restore_state
 779 0020 9142     		cmp	r1, r2
 780 0022 28BF     		it	cs
 781 0024 1146     		movcs	r1, r2
 782              	.LVL72:
 783 0026 0846     		mov	r0, r1
 784              	.LVL73:
 785 0028 F4E7     		b	.L61
 786              	.LVL74:
 787              	.L64:
 788 002a FFF7FEFF 		bl	__stack_chk_fail
 789              	.LVL75:
 790              	.L66:
 791 002e 00BF     		.align	2
 792              	.L65:
 793 0030 00000000 		.word	__stack_chk_guard
 794              		.cfi_endproc
 795              	.LFE261:
 796              		.size	min_value, .-min_value
 797              		.section	.text.get_color,"ax",%progbits
 798              		.align	1
ARM GAS  C:\Users\maria\AppData\Local\Temp\ccQUGkbC.s 			page 15


 799              		.p2align 4,,15
 800              		.global	get_color
 801              		.syntax unified
 802              		.thumb
 803              		.thumb_func
 804              		.fpu fpv4-sp-d16
 805              		.type	get_color, %function
 806              	get_color:
 807              	.LFB262:
 808              		.loc 1 164 0
 809              		.cfi_startproc
 810              		@ args = 0, pretend = 0, frame = 8
 811              		@ frame_needed = 0, uses_anonymous_args = 0
 812 0000 00B5     		push	{lr}
 813              		.cfi_def_cfa_offset 4
 814              		.cfi_offset 14, -4
 815 0002 074B     		ldr	r3, .L71
 816              		.loc 1 165 0
 817 0004 0749     		ldr	r1, .L71+4
 818              		.loc 1 164 0
 819 0006 1A68     		ldr	r2, [r3]
 820              		.loc 1 166 0
 821 0008 0878     		ldrb	r0, [r1]	@ zero_extendqisi2
 822              		.loc 1 164 0
 823 000a 83B0     		sub	sp, sp, #12
 824              		.cfi_def_cfa_offset 16
 825              		.loc 1 164 0
 826 000c 0192     		str	r2, [sp, #4]
 827              		.loc 1 166 0
 828 000e 019A     		ldr	r2, [sp, #4]
 829 0010 1B68     		ldr	r3, [r3]
 830 0012 9A42     		cmp	r2, r3
 831 0014 02D1     		bne	.L70
 832 0016 03B0     		add	sp, sp, #12
 833              		.cfi_remember_state
 834              		.cfi_def_cfa_offset 4
 835              		@ sp needed
 836 0018 5DF804FB 		ldr	pc, [sp], #4
 837              	.L70:
 838              		.cfi_restore_state
 839 001c FFF7FEFF 		bl	__stack_chk_fail
 840              	.LVL76:
 841              	.L72:
 842              		.align	2
 843              	.L71:
 844 0020 00000000 		.word	__stack_chk_guard
 845 0024 00000000 		.word	.LANCHOR4
 846              		.cfi_endproc
 847              	.LFE262:
 848              		.size	get_color, .-get_color
 849              		.section	.text.process_image_start,"ax",%progbits
 850              		.align	1
 851              		.p2align 4,,15
 852              		.global	process_image_start
 853              		.syntax unified
 854              		.thumb
 855              		.thumb_func
ARM GAS  C:\Users\maria\AppData\Local\Temp\ccQUGkbC.s 			page 16


 856              		.fpu fpv4-sp-d16
 857              		.type	process_image_start, %function
 858              	process_image_start:
 859              	.LFB263:
 860              		.loc 1 168 0
 861              		.cfi_startproc
 862              		@ args = 0, pretend = 0, frame = 8
 863              		@ frame_needed = 0, uses_anonymous_args = 0
 864 0000 30B5     		push	{r4, r5, lr}
 865              		.cfi_def_cfa_offset 12
 866              		.cfi_offset 4, -12
 867              		.cfi_offset 5, -8
 868              		.cfi_offset 14, -4
 869 0002 0E4C     		ldr	r4, .L77
 870              		.loc 1 169 0
 871 0004 0E4B     		ldr	r3, .L77+4
 872              		.loc 1 168 0
 873 0006 2268     		ldr	r2, [r4]
 874              		.loc 1 169 0
 875 0008 0E48     		ldr	r0, .L77+8
 876              		.loc 1 168 0
 877 000a 85B0     		sub	sp, sp, #20
 878              		.cfi_def_cfa_offset 32
 879              		.loc 1 169 0
 880 000c 0025     		movs	r5, #0
 881              		.loc 1 168 0
 882 000e 0392     		str	r2, [sp, #12]
 883              		.loc 1 169 0
 884 0010 4FF4AF61 		mov	r1, #1400
 885 0014 4022     		movs	r2, #64
 886 0016 0095     		str	r5, [sp]
 887 0018 FFF7FEFF 		bl	chThdCreateStatic
 888              	.LVL77:
 889              		.loc 1 170 0
 890 001c 0A4B     		ldr	r3, .L77+12
 891 001e 0095     		str	r5, [sp]
 892 0020 4022     		movs	r2, #64
 893 0022 0A48     		ldr	r0, .L77+16
 894 0024 4FF41E71 		mov	r1, #632
 895 0028 FFF7FEFF 		bl	chThdCreateStatic
 896              	.LVL78:
 897              		.loc 1 171 0
 898 002c 039A     		ldr	r2, [sp, #12]
 899 002e 2368     		ldr	r3, [r4]
 900 0030 9A42     		cmp	r2, r3
 901 0032 01D1     		bne	.L76
 902 0034 05B0     		add	sp, sp, #20
 903              		.cfi_remember_state
 904              		.cfi_def_cfa_offset 12
 905              		@ sp needed
 906 0036 30BD     		pop	{r4, r5, pc}
 907              	.L76:
 908              		.cfi_restore_state
 909 0038 FFF7FEFF 		bl	__stack_chk_fail
 910              	.LVL79:
 911              	.L78:
 912              		.align	2
ARM GAS  C:\Users\maria\AppData\Local\Temp\ccQUGkbC.s 			page 17


 913              	.L77:
 914 003c 00000000 		.word	__stack_chk_guard
 915 0040 00000000 		.word	ProcessImage
 916 0044 00000000 		.word	.LANCHOR10
 917 0048 00000000 		.word	CaptureImage
 918 004c 00000000 		.word	.LANCHOR11
 919              		.cfi_endproc
 920              	.LFE263:
 921              		.size	process_image_start, .-process_image_start
 922              		.section	.bss.buffer1.11353,"aw",%nobits
 923              		.align	2
 924              		.set	.LANCHOR7,. + 0
 925              		.type	buffer1.11353, %object
 926              		.size	buffer1.11353, 640
 927              	buffer1.11353:
 928 0000 00000000 		.space	640
 928      00000000 
 928      00000000 
 928      00000000 
 928      00000000 
 929              		.section	.bss.buffer2.11354,"aw",%nobits
 930              		.align	2
 931              		.set	.LANCHOR9,. + 0
 932              		.type	buffer2.11354, %object
 933              		.size	buffer2.11354, 640
 934              	buffer2.11354:
 935 0000 00000000 		.space	640
 935      00000000 
 935      00000000 
 935      00000000 
 935      00000000 
 936              		.section	.bss.image_b.11351,"aw",%nobits
 937              		.align	2
 938              		.set	.LANCHOR8,. + 0
 939              		.type	image_b.11351, %object
 940              		.size	image_b.11351, 640
 941              	image_b.11351:
 942 0000 00000000 		.space	640
 942      00000000 
 942      00000000 
 942      00000000 
 942      00000000 
 943              		.section	.bss.image_r.11349,"aw",%nobits
 944              		.align	2
 945              		.set	.LANCHOR6,. + 0
 946              		.type	image_r.11349, %object
 947              		.size	image_r.11349, 640
 948              	image_r.11349:
 949 0000 00000000 		.space	640
 949      00000000 
 949      00000000 
 949      00000000 
 949      00000000 
 950              		.section	.bss.waCaptureImage,"aw",%nobits
 951              		.align	3
 952              		.set	.LANCHOR11,. + 0
 953              		.type	waCaptureImage, %object
ARM GAS  C:\Users\maria\AppData\Local\Temp\ccQUGkbC.s 			page 18


 954              		.size	waCaptureImage, 632
 955              	waCaptureImage:
 956 0000 00000000 		.space	632
 956      00000000 
 956      00000000 
 956      00000000 
 956      00000000 
 957              		.section	.bss.waProcessImage,"aw",%nobits
 958              		.align	3
 959              		.set	.LANCHOR10,. + 0
 960              		.type	waProcessImage, %object
 961              		.size	waProcessImage, 1400
 962              	waProcessImage:
 963 0000 00000000 		.space	1400
 963      00000000 
 963      00000000 
 963      00000000 
 963      00000000 
 964              		.section	.data.color.11375,"aw",%progbits
 965              		.set	.LANCHOR3,. + 0
 966              		.type	color.11375, %object
 967              		.size	color.11375, 1
 968              	color.11375:
 969 0000 0A       		.byte	10
 970              		.section	.data.color_number,"aw",%progbits
 971              		.set	.LANCHOR4,. + 0
 972              		.type	color_number, %object
 973              		.size	color_number, 1
 974              	color_number:
 975 0000 0A       		.byte	10
 976              		.section	.data.image_ready_sem,"aw",%progbits
 977              		.align	2
 978              		.set	.LANCHOR1,. + 0
 979              		.type	image_ready_sem, %object
 980              		.size	image_ready_sem, 12
 981              	image_ready_sem:
 982 0000 00000000 		.word	image_ready_sem
 983 0004 00000000 		.word	image_ready_sem
 984 0008 00000000 		.word	0
 985              		.section	.rodata.__FUNCTION__.11341,"a",%progbits
 986              		.align	2
 987              		.set	.LANCHOR0,. + 0
 988              		.type	__FUNCTION__.11341, %object
 989              		.size	__FUNCTION__.11341, 13
 990              	__FUNCTION__.11341:
 991 0000 43617074 		.ascii	"CaptureImage\000"
 991      75726549 
 991      6D616765 
 991      00
 992              		.section	.rodata.__FUNCTION__.11347,"a",%progbits
 993              		.align	2
 994              		.set	.LANCHOR5,. + 0
 995              		.type	__FUNCTION__.11347, %object
 996              		.size	__FUNCTION__.11347, 13
 997              	__FUNCTION__.11347:
 998 0000 50726F63 		.ascii	"ProcessImage\000"
 998      65737349 
ARM GAS  C:\Users\maria\AppData\Local\Temp\ccQUGkbC.s 			page 19


 998      6D616765 
 998      00
 999              		.section	.rodata.__func__.7153,"a",%progbits
 1000              		.align	2
 1001              		.set	.LANCHOR2,. + 0
 1002              		.type	__func__.7153, %object
 1003              		.size	__func__.7153, 12
 1004              	__func__.7153:
 1005 0000 63685379 		.ascii	"chSysUnlock\000"
 1005      73556E6C 
 1005      6F636B00 
 1006              		.text
 1007              	.Letext0:
 1008              		.file 6 "c:\\users\\maria\\documents\\eclipse_e-puck2_win32_29_jan_2020\\eclipse_e-puck2\\tools\\g
 1009              		.file 7 "c:\\users\\maria\\documents\\eclipse_e-puck2_win32_29_jan_2020\\eclipse_e-puck2\\tools\\g
 1010              		.file 8 "c:\\users\\maria\\documents\\eclipse_e-puck2_win32_29_jan_2020\\eclipse_e-puck2\\tools\\g
 1011              		.file 9 "../../lib/e-puck2_main-processor/ChibiOS//os/rt/ports/ARMCMx/compilers/GCC/chtypes.h"
 1012              		.file 10 "../../lib/e-puck2_main-processor/ChibiOS//os/rt/include/chsystypes.h"
 1013              		.file 11 "../../lib/e-puck2_main-processor/ChibiOS//os/rt/include/chschd.h"
 1014              		.file 12 "../../lib/e-puck2_main-processor/ChibiOS//os/ext/CMSIS/include/core_cm4.h"
 1015              		.file 13 "../../lib/e-puck2_main-processor/ChibiOS//os/ext/CMSIS/ST/system_stm32f4xx.h"
 1016              		.file 14 "../../lib/e-puck2_main-processor/ChibiOS//os/ext/CMSIS/ST/stm32f407xx.h"
 1017              		.file 15 "../../lib/e-puck2_main-processor/ChibiOS//os/rt/ports/ARMCMx/chcore.h"
 1018              		.file 16 "../../lib/e-puck2_main-processor/ChibiOS//os/rt/ports/ARMCMx/chcore_v7m.h"
 1019              		.file 17 "../../lib/e-puck2_main-processor/ChibiOS//os/rt/include/chdebug.h"
 1020              		.file 18 "../../lib/e-puck2_main-processor/ChibiOS//os/rt/include/chtm.h"
 1021              		.file 19 "../../lib/e-puck2_main-processor/ChibiOS//os/rt/include/chstats.h"
 1022              		.file 20 "../../lib/e-puck2_main-processor/ChibiOS//os/rt/include/chsem.h"
 1023              		.file 21 "../../lib/e-puck2_main-processor/ChibiOS//os/rt/include/chmtx.h"
 1024              		.file 22 "../../lib/e-puck2_main-processor/ChibiOS//os/rt/include/chevents.h"
 1025              		.file 23 "../../lib/e-puck2_main-processor/ChibiOS//os/rt/include/chqueues.h"
 1026              		.file 24 "../../lib/e-puck2_main-processor/ChibiOS//os/hal/ports/STM32/STM32F4xx/stm32_dma.h"
 1027              		.file 25 "../../lib/e-puck2_main-processor/ChibiOS//os/hal/include/hal_ioblock.h"
 1028              		.file 26 "../../lib/e-puck2_main-processor/ChibiOS//os/hal/ports/STM32/LLD/GPIOv2/pal_lld.h"
 1029              		.file 27 "../../lib/e-puck2_main-processor/ChibiOS//os/hal/include/adc.h"
 1030              		.file 28 "../../lib/e-puck2_main-processor/ChibiOS//os/hal/ports/STM32/STM32F4xx/adc_lld.h"
 1031              		.file 29 "../../lib/e-puck2_main-processor/ChibiOS//os/hal/include/can.h"
 1032              		.file 30 "../../lib/e-puck2_main-processor/ChibiOS//os/hal/ports/STM32/LLD/can_lld.h"
 1033              		.file 31 "../../lib/e-puck2_main-processor/ChibiOS//os/hal/include/dac.h"
 1034              		.file 32 "../../lib/e-puck2_main-processor/ChibiOS//os/hal/ports/STM32/LLD/DACv1/dac_lld.h"
 1035              		.file 33 "../../lib/e-puck2_main-processor/ChibiOS//os/hal/include/ext.h"
 1036              		.file 34 "../../lib/e-puck2_main-processor/ChibiOS//os/hal/ports/STM32/LLD/ext_lld.h"
 1037              		.file 35 "../../lib/e-puck2_main-processor/ChibiOS//os/hal/include/gpt.h"
 1038              		.file 36 "../../lib/e-puck2_main-processor/ChibiOS//os/hal/ports/STM32/LLD/TIMv1/gpt_lld.h"
 1039              		.file 37 "../../lib/e-puck2_main-processor/ChibiOS//os/hal/ports/STM32/LLD/TIMv1/stm32_tim.h"
 1040              		.file 38 "../../lib/e-puck2_main-processor/ChibiOS//os/hal/include/i2c.h"
 1041              		.file 39 "../../lib/e-puck2_main-processor/ChibiOS//os/hal/ports/STM32/LLD/I2Cv1/i2c_lld.h"
 1042              		.file 40 "../../lib/e-puck2_main-processor/ChibiOS//os/hal/include/i2s.h"
 1043              		.file 41 "../../lib/e-puck2_main-processor/ChibiOS//os/hal/ports/STM32/LLD/SPIv1/i2s_lld.h"
 1044              		.file 42 "../../lib/e-puck2_main-processor/ChibiOS//os/hal/include/pwm.h"
 1045              		.file 43 "../../lib/e-puck2_main-processor/ChibiOS//os/hal/ports/STM32/LLD/TIMv1/pwm_lld.h"
 1046              		.file 44 "../../lib/e-puck2_main-processor/ChibiOS//os/hal/include/serial.h"
 1047              		.file 45 "../../lib/e-puck2_main-processor/ChibiOS//os/hal/ports/STM32/LLD/USARTv1/serial_lld.h"
 1048              		.file 46 "../../lib/e-puck2_main-processor/ChibiOS//os/hal/include/sdc.h"
 1049              		.file 47 "../../lib/e-puck2_main-processor/ChibiOS//os/hal/ports/STM32/LLD/sdc_lld.h"
 1050              		.file 48 "../../lib/e-puck2_main-processor/ChibiOS//os/hal/include/spi.h"
 1051              		.file 49 "../../lib/e-puck2_main-processor/ChibiOS//os/hal/ports/STM32/LLD/SPIv1/spi_lld.h"
ARM GAS  C:\Users\maria\AppData\Local\Temp\ccQUGkbC.s 			page 20


 1052              		.file 50 "../../lib/e-puck2_main-processor/ChibiOS//os/hal/include/usb.h"
 1053              		.file 51 "../../lib/e-puck2_main-processor/ChibiOS//os/hal/ports/STM32/LLD/OTGv1/usb_lld.h"
 1054              		.file 52 "../../lib/e-puck2_main-processor/ChibiOS//os/hal/ports/STM32/LLD/OTGv1/stm32_otg.h"
 1055              		.file 53 "../../lib/e-puck2_main-processor/ChibiOS//os/hal/include/serial_usb.h"
 1056              		.file 54 "../../lib/e-puck2_main-processor/src/usbcfg.h"
 1057              		.file 55 "../../lib/e-puck2_main-processor/ChibiOS_ext/os/hal/include/../ports/STM32/STM32F4xx/dcm
 1058              		.file 56 "../../lib/e-puck2_main-processor/src/camera/po8030.h"
 1059              		.file 57 "../../lib/e-puck2_main-processor/src/camera/dcmi_camera.h"
 1060              		.file 58 "c:\\users\\maria\\documents\\eclipse_e-puck2_win32_29_jan_2020\\eclipse_e-puck2\\tools\\
 1061              		.file 59 "c:\\users\\maria\\documents\\eclipse_e-puck2_win32_29_jan_2020\\eclipse_e-puck2\\tools\\
 1062              		.file 60 "c:\\users\\maria\\documents\\eclipse_e-puck2_win32_29_jan_2020\\eclipse_e-puck2\\tools\\
 1063              		.file 61 "../../lib/e-puck2_main-processor/src/msgbus/messagebus.h"
 1064              		.file 62 "c:\\users\\maria\\documents\\eclipse_e-puck2_win32_29_jan_2020\\eclipse_e-puck2\\tools\\
 1065              		.file 63 "c:\\users\\maria\\documents\\eclipse_e-puck2_win32_29_jan_2020\\eclipse_e-puck2\\tools\\
 1066              		.file 64 "../../lib/e-puck2_main-processor/src/parameter/parameter.h"
 1067              		.file 65 "./main.h"
 1068              		.file 66 "../../lib/e-puck2_main-processor/ChibiOS//os/rt/include/chthreads.h"