ARM GAS  C:\Users\ELIOOV~1\AppData\Local\Temp\ccJ3g6J8.s 			page 1


   1              		.cpu cortex-m4
   2              		.eabi_attribute 27, 1
   3              		.eabi_attribute 28, 1
   4              		.eabi_attribute 20, 1
   5              		.eabi_attribute 21, 1
   6              		.eabi_attribute 23, 3
   7              		.eabi_attribute 24, 1
   8              		.eabi_attribute 25, 1
   9              		.eabi_attribute 26, 1
  10              		.eabi_attribute 30, 2
  11              		.eabi_attribute 34, 1
  12              		.eabi_attribute 18, 4
  13              		.file	"scan.c"
  14              		.text
  15              	.Ltext0:
  16              		.cfi_sections	.debug_frame
  17              		.section	.text.scaning,"ax",%progbits
  18              		.align	1
  19              		.p2align 4,,15
  20              		.global	scaning
  21              		.syntax unified
  22              		.thumb
  23              		.thumb_func
  24              		.fpu fpv4-sp-d16
  25              		.type	scaning, %function
  26              	scaning:
  27              	.LFB260:
  28              		.file 1 "scan.c"
  29              		.loc 1 20 0
  30              		.cfi_startproc
  31              		@ args = 0, pretend = 0, frame = 8
  32              		@ frame_needed = 0, uses_anonymous_args = 0
  33 0000 2DE9F041 		push	{r4, r5, r6, r7, r8, lr}
  34              		.cfi_def_cfa_offset 24
  35              		.cfi_offset 4, -24
  36              		.cfi_offset 5, -20
  37              		.cfi_offset 6, -16
  38              		.cfi_offset 7, -12
  39              		.cfi_offset 8, -8
  40              		.cfi_offset 14, -4
  41 0004 2DED028B 		vpush.64	{d8}
  42              		.cfi_def_cfa_offset 32
  43              		.cfi_offset 80, -32
  44              		.cfi_offset 81, -28
  45 0008 404E     		ldr	r6, .L21
  46              		.loc 1 22 0
  47 000a 414C     		ldr	r4, .L21+4
  48              		.loc 1 20 0
  49 000c 3368     		ldr	r3, [r6]
  50 000e DFF80881 		ldr	r8, .L21+12
  51              	.LBB2:
  52              		.loc 1 27 0
  53 0012 9FED408A 		vldr.32	s16, .L21+8
  54              	.LBE2:
  55              		.loc 1 20 0
  56 0016 82B0     		sub	sp, sp, #8
  57              		.cfi_def_cfa_offset 40
ARM GAS  C:\Users\ELIOOV~1\AppData\Local\Temp\ccJ3g6J8.s 			page 2


  58              		.loc 1 22 0
  59 0018 2F25     		movs	r5, #47
  60              		.loc 1 20 0
  61 001a 0193     		str	r3, [sp, #4]
  62              		.loc 1 22 0
  63 001c 0023     		movs	r3, #0
  64 001e 2360     		str	r3, [r4]
  65              	.LVL0:
  66              	.L2:
  67              	.LBB3:
  68              		.loc 1 26 0 discriminator 3
  69 0020 6420     		movs	r0, #100
  70 0022 FFF7FEFF 		bl	chThdSleep
  71              	.LVL1:
  72              		.loc 1 27 0 discriminator 3
  73 0026 B0EE480A 		vmov.f32	s0, s16
  74 002a 0421     		movs	r1, #4
  75 002c 0120     		movs	r0, #1
  76 002e FFF7FEFF 		bl	turn
  77              	.LVL2:
  78              		.loc 1 28 0 discriminator 3
  79 0032 2768     		ldr	r7, [r4]
  80 0034 FFF7FEFF 		bl	VL53L0X_get_dist_mm
  81              	.LVL3:
  82              		.loc 1 29 0 discriminator 3
  83 0038 2368     		ldr	r3, [r4]
  84              		.loc 1 28 0 discriminator 3
  85 003a 28F81700 		strh	r0, [r8, r7, lsl #1]	@ movhi
  86              		.loc 1 29 0 discriminator 3
  87 003e 0133     		adds	r3, r3, #1
  88              		.loc 1 24 0 discriminator 3
  89 0040 013D     		subs	r5, r5, #1
  90              	.LVL4:
  91              		.loc 1 29 0 discriminator 3
  92 0042 2360     		str	r3, [r4]
  93              	.LVL5:
  94              		.loc 1 24 0 discriminator 3
  95 0044 ECD1     		bne	.L2
  96 0046 344A     		ldr	r2, .L21+12
  97 0048 9FED327A 		vldr.32	s14, .L21+8
  98              	.LBE3:
  99              	.LBB4:
 100              		.loc 1 42 0
 101 004c DFF8D0C0 		ldr	ip, .L21+20
 102              	.LBE4:
 103              		.loc 1 32 0
 104 0050 2560     		str	r5, [r4]
 105              	.LVL6:
 106 0052 2F46     		mov	r7, r5
 107              	.LBB5:
 108              		.loc 1 35 0
 109 0054 0323     		movs	r3, #3
 110 0056 F0EE087A 		vmov.f32	s15, #3.0e+0
 111              		.loc 1 42 0
 112 005a F3EE046A 		vmov.f32	s13, #2.0e+1
 113              	.LVL7:
 114              	.L6:
ARM GAS  C:\Users\ELIOOV~1\AppData\Local\Temp\ccJ3g6J8.s 			page 3


 115              		.loc 1 37 0
 116 005e D188     		ldrh	r1, [r2, #6]
 117 0060 F929     		cmp	r1, #249
 118 0062 03F10103 		add	r3, r3, #1
 119              	.LVL8:
 120 0066 21D8     		bhi	.L3
 121              		.loc 1 37 0 is_stmt 0 discriminator 1
 122 0068 9088     		ldrh	r0, [r2, #4]
 123 006a 8842     		cmp	r0, r1
 124 006c 1ED3     		bcc	.L3
 125              		.loc 1 38 0 is_stmt 1
 126 006e 1089     		ldrh	r0, [r2, #8]
 127 0070 8842     		cmp	r0, r1
 128 0072 1BD3     		bcc	.L3
 129              		.loc 1 38 0 is_stmt 0 discriminator 1
 130 0074 5088     		ldrh	r0, [r2, #2]
 131 0076 8842     		cmp	r0, r1
 132 0078 18D3     		bcc	.L3
 133              		.loc 1 39 0 is_stmt 1
 134 007a 5089     		ldrh	r0, [r2, #10]
 135 007c 8842     		cmp	r0, r1
 136 007e 15D3     		bcc	.L3
 137              		.loc 1 39 0 is_stmt 0 discriminator 1
 138 0080 1088     		ldrh	r0, [r2]
 139 0082 8842     		cmp	r0, r1
 140 0084 12D3     		bcc	.L3
 141              		.loc 1 40 0 is_stmt 1
 142 0086 9089     		ldrh	r0, [r2, #12]
 143 0088 8842     		cmp	r0, r1
 144 008a 0FD3     		bcc	.L3
 145 008c 67EE877A 		vmul.f32	s15, s15, s14
 146              		.loc 1 42 0
 147 0090 4DBB     		cbnz	r5, .L18
 148              	.L4:
 149              		.loc 1 44 0
 150 0092 FDEEE77A 		vcvt.s32.f32	s15, s15
 151 0096 6800     		lsls	r0, r5, #1
 152 0098 17EE907A 		vmov	r7, s15	@ int
 153              		.loc 1 45 0
 154 009c 00F1010E 		add	lr, r0, #1
 155              		.loc 1 44 0
 156 00a0 4CF82070 		str	r7, [ip, r0, lsl #2]
 157              		.loc 1 45 0
 158 00a4 4CF82E10 		str	r1, [ip, lr, lsl #2]
 159              		.loc 1 46 0
 160 00a8 0135     		adds	r5, r5, #1
 161 00aa 0127     		movs	r7, #1
 162              	.L3:
 163              	.LVL9:
 164              		.loc 1 35 0 discriminator 2
 165 00ac 07EE903A 		vmov	s15, r3	@ int
 166 00b0 2D2B     		cmp	r3, #45
 167 00b2 02F10202 		add	r2, r2, #2
 168 00b6 F8EEE77A 		vcvt.f32.s32	s15, s15
 169 00ba D0D1     		bne	.L6
 170 00bc 17BB     		cbnz	r7, .L19
 171              	.L7:
ARM GAS  C:\Users\ELIOOV~1\AppData\Local\Temp\ccJ3g6J8.s 			page 4


 172              	.LBE5:
 173              		.loc 1 51 0
 174 00be 4FF47A70 		mov	r0, #1000
 175 00c2 FFF7FEFF 		bl	chThdSleep
 176              	.LVL10:
 177              		.loc 1 52 0
 178 00c6 0020     		movs	r0, #0
 179 00c8 9FED140A 		vldr.32	s0, .L21+16
 180 00cc 0421     		movs	r1, #4
 181 00ce FFF7FEFF 		bl	turn
 182              	.LVL11:
 183              		.loc 1 54 0
 184 00d2 019A     		ldr	r2, [sp, #4]
 185 00d4 3368     		ldr	r3, [r6]
 186 00d6 1248     		ldr	r0, .L21+20
 187 00d8 9A42     		cmp	r2, r3
 188 00da 15D1     		bne	.L20
 189 00dc 02B0     		add	sp, sp, #8
 190              		.cfi_remember_state
 191              		.cfi_def_cfa_offset 32
 192              		@ sp needed
 193 00de BDEC028B 		vldm	sp!, {d8}
 194              		.cfi_restore 80
 195              		.cfi_restore 81
 196              		.cfi_def_cfa_offset 24
 197 00e2 BDE8F081 		pop	{r4, r5, r6, r7, r8, pc}
 198              	.LVL12:
 199              	.L18:
 200              		.cfi_restore_state
 201              	.LBB6:
 202              		.loc 1 42 0 discriminator 1
 203 00e6 681E     		subs	r0, r5, #1
 204 00e8 5CF83000 		ldr	r0, [ip, r0, lsl #3]
 205 00ec 06EE100A 		vmov	s12, r0	@ int
 206 00f0 B8EEC66A 		vcvt.f32.s32	s12, s12
 207 00f4 37EEC66A 		vsub.f32	s12, s15, s12
 208 00f8 B4EEE66A 		vcmpe.f32	s12, s13
 209 00fc F1EE10FA 		vmrs	APSR_nzcv, FPSCR
 210 0100 D4DD     		ble	.L3
 211 0102 C6E7     		b	.L4
 212              	.LVL13:
 213              	.L19:
 214 0104 2560     		str	r5, [r4]
 215 0106 DAE7     		b	.L7
 216              	.LVL14:
 217              	.L20:
 218              	.LBE6:
 219              		.loc 1 54 0
 220 0108 FFF7FEFF 		bl	__stack_chk_fail
 221              	.LVL15:
 222              	.L22:
 223              		.align	2
 224              	.L21:
 225 010c 00000000 		.word	__stack_chk_guard
 226 0110 00000000 		.word	.LANCHOR0
 227 0114 33337340 		.word	1081291571
 228 0118 00000000 		.word	.LANCHOR1
ARM GAS  C:\Users\ELIOOV~1\AppData\Local\Temp\ccJ3g6J8.s 			page 5


 229 011c 00003443 		.word	1127481344
 230 0120 00000000 		.word	.LANCHOR2
 231              		.cfi_endproc
 232              	.LFE260:
 233              		.size	scaning, .-scaning
 234              		.global	tof_value
 235              		.global	j
 236              		.section	.bss.j,"aw",%nobits
 237              		.align	2
 238              		.set	.LANCHOR0,. + 0
 239              		.type	j, %object
 240              		.size	j, 4
 241              	j:
 242 0000 00000000 		.space	4
 243              		.section	.bss.tof_value,"aw",%nobits
 244              		.align	2
 245              		.set	.LANCHOR1,. + 0
 246              		.type	tof_value, %object
 247              		.size	tof_value, 360
 248              	tof_value:
 249 0000 00000000 		.space	360
 249      00000000 
 249      00000000 
 249      00000000 
 249      00000000 
 250              		.section	.bss.tree_angle,"aw",%nobits
 251              		.align	2
 252              		.set	.LANCHOR2,. + 0
 253              		.type	tree_angle, %object
 254              		.size	tree_angle, 40
 255              	tree_angle:
 256 0000 00000000 		.space	40
 256      00000000 
 256      00000000 
 256      00000000 
 256      00000000 
 257              		.text
 258              	.Letext0:
 259              		.file 2 "c:\\eclipse_e-puck2\\tools\\gcc-arm-none-eabi-7-2017-q4-major-win32\\lib\\gcc\\arm-none-e
 260              		.file 3 "c:\\eclipse_e-puck2\\tools\\gcc-arm-none-eabi-7-2017-q4-major-win32\\arm-none-eabi\\inclu
 261              		.file 4 "c:\\eclipse_e-puck2\\tools\\gcc-arm-none-eabi-7-2017-q4-major-win32\\arm-none-eabi\\inclu
 262              		.file 5 "c:\\eclipse_e-puck2\\tools\\gcc-arm-none-eabi-7-2017-q4-major-win32\\arm-none-eabi\\inclu
 263              		.file 6 "c:\\eclipse_e-puck2\\tools\\gcc-arm-none-eabi-7-2017-q4-major-win32\\arm-none-eabi\\inclu
 264              		.file 7 "c:\\eclipse_e-puck2\\tools\\gcc-arm-none-eabi-7-2017-q4-major-win32\\arm-none-eabi\\inclu
 265              		.file 8 "c:\\eclipse_e-puck2\\tools\\gcc-arm-none-eabi-7-2017-q4-major-win32\\arm-none-eabi\\inclu
 266              		.file 9 "../../lib/e-puck2_main-processor/ChibiOS//os/rt/ports/ARMCMx/compilers/GCC/chtypes.h"
 267              		.file 10 "../../lib/e-puck2_main-processor/ChibiOS//os/rt/include/chsystypes.h"
 268              		.file 11 "../../lib/e-puck2_main-processor/ChibiOS//os/rt/include/chschd.h"
 269              		.file 12 "../../lib/e-puck2_main-processor/ChibiOS//os/ext/CMSIS/include/core_cm4.h"
 270              		.file 13 "../../lib/e-puck2_main-processor/ChibiOS//os/ext/CMSIS/ST/system_stm32f4xx.h"
 271              		.file 14 "../../lib/e-puck2_main-processor/ChibiOS//os/ext/CMSIS/ST/stm32f407xx.h"
 272              		.file 15 "../../lib/e-puck2_main-processor/ChibiOS//os/rt/ports/ARMCMx/chcore.h"
 273              		.file 16 "../../lib/e-puck2_main-processor/ChibiOS//os/rt/ports/ARMCMx/chcore_v7m.h"
 274              		.file 17 "../../lib/e-puck2_main-processor/ChibiOS//os/rt/include/chdebug.h"
 275              		.file 18 "../../lib/e-puck2_main-processor/ChibiOS//os/rt/include/chtm.h"
 276              		.file 19 "../../lib/e-puck2_main-processor/ChibiOS//os/rt/include/chstats.h"
 277              		.file 20 "../../lib/e-puck2_main-processor/ChibiOS//os/rt/include/chsem.h"
ARM GAS  C:\Users\ELIOOV~1\AppData\Local\Temp\ccJ3g6J8.s 			page 6


 278              		.file 21 "../../lib/e-puck2_main-processor/ChibiOS//os/rt/include/chmtx.h"
 279              		.file 22 "../../lib/e-puck2_main-processor/ChibiOS//os/rt/include/chregistry.h"
 280              		.file 23 "../../lib/e-puck2_main-processor/ChibiOS//os/rt/include/chevents.h"
 281              		.file 24 "../../lib/e-puck2_main-processor/ChibiOS//os/rt/include/chqueues.h"
 282              		.file 25 "../../lib/e-puck2_main-processor/ChibiOS//os/hal/ports/STM32/STM32F4xx/stm32_dma.h"
 283              		.file 26 "../../lib/e-puck2_main-processor/ChibiOS//os/hal/include/hal_ioblock.h"
 284              		.file 27 "../../lib/e-puck2_main-processor/ChibiOS//os/hal/ports/STM32/LLD/GPIOv2/pal_lld.h"
 285              		.file 28 "../../lib/e-puck2_main-processor/ChibiOS//os/hal/include/adc.h"
 286              		.file 29 "../../lib/e-puck2_main-processor/ChibiOS//os/hal/ports/STM32/STM32F4xx/adc_lld.h"
 287              		.file 30 "../../lib/e-puck2_main-processor/ChibiOS//os/hal/include/can.h"
 288              		.file 31 "../../lib/e-puck2_main-processor/ChibiOS//os/hal/ports/STM32/LLD/can_lld.h"
 289              		.file 32 "../../lib/e-puck2_main-processor/ChibiOS//os/hal/include/dac.h"
 290              		.file 33 "../../lib/e-puck2_main-processor/ChibiOS//os/hal/ports/STM32/LLD/DACv1/dac_lld.h"
 291              		.file 34 "../../lib/e-puck2_main-processor/ChibiOS//os/hal/include/ext.h"
 292              		.file 35 "../../lib/e-puck2_main-processor/ChibiOS//os/hal/ports/STM32/LLD/ext_lld.h"
 293              		.file 36 "../../lib/e-puck2_main-processor/ChibiOS//os/hal/include/gpt.h"
 294              		.file 37 "../../lib/e-puck2_main-processor/ChibiOS//os/hal/ports/STM32/LLD/TIMv1/gpt_lld.h"
 295              		.file 38 "../../lib/e-puck2_main-processor/ChibiOS//os/hal/ports/STM32/LLD/TIMv1/stm32_tim.h"
 296              		.file 39 "../../lib/e-puck2_main-processor/ChibiOS//os/hal/include/i2c.h"
 297              		.file 40 "../../lib/e-puck2_main-processor/ChibiOS//os/hal/ports/STM32/LLD/I2Cv1/i2c_lld.h"
 298              		.file 41 "../../lib/e-puck2_main-processor/ChibiOS//os/hal/include/i2s.h"
 299              		.file 42 "../../lib/e-puck2_main-processor/ChibiOS//os/hal/ports/STM32/LLD/SPIv1/i2s_lld.h"
 300              		.file 43 "../../lib/e-puck2_main-processor/ChibiOS//os/hal/include/pwm.h"
 301              		.file 44 "../../lib/e-puck2_main-processor/ChibiOS//os/hal/ports/STM32/LLD/TIMv1/pwm_lld.h"
 302              		.file 45 "../../lib/e-puck2_main-processor/ChibiOS//os/hal/include/serial.h"
 303              		.file 46 "../../lib/e-puck2_main-processor/ChibiOS//os/hal/ports/STM32/LLD/USARTv1/serial_lld.h"
 304              		.file 47 "../../lib/e-puck2_main-processor/ChibiOS//os/hal/include/sdc.h"
 305              		.file 48 "../../lib/e-puck2_main-processor/ChibiOS//os/hal/ports/STM32/LLD/sdc_lld.h"
 306              		.file 49 "../../lib/e-puck2_main-processor/ChibiOS//os/hal/include/spi.h"
 307              		.file 50 "../../lib/e-puck2_main-processor/ChibiOS//os/hal/ports/STM32/LLD/SPIv1/spi_lld.h"
 308              		.file 51 "../../lib/e-puck2_main-processor/ChibiOS//os/hal/include/usb.h"
 309              		.file 52 "../../lib/e-puck2_main-processor/ChibiOS//os/hal/ports/STM32/LLD/OTGv1/usb_lld.h"
 310              		.file 53 "../../lib/e-puck2_main-processor/ChibiOS//os/hal/ports/STM32/LLD/OTGv1/stm32_otg.h"
 311              		.file 54 "../../lib/e-puck2_main-processor/ChibiOS//os/hal/include/serial_usb.h"
 312              		.file 55 "../../lib/e-puck2_main-processor/src/usbcfg.h"
 313              		.file 56 "../../lib/e-puck2_main-processor/ChibiOS//os/rt/include/chthreads.h"
 314              		.file 57 "moves.h"
 315              		.file 58 "../../lib/e-puck2_main-processor/src/sensors/VL53L0X/VL53L0X.h"